
kernel.elf:     file format elf32-littlearm


Disassembly of section .text:

00008000 <__code_start__>:
    8000:	e3a00013 	mov	r0, #19, 0
    8004:	e3800080 	orr	r0, r0, #128, 0	; 0x80
    8008:	e129f000 	msr	CPSR_fc, r0
    800c:	e3a01000 	mov	r1, #0, 0
    8010:	ee071f95 	mcr	15, 0, r1, cr7, cr5, {4}
    8014:	e3a0d302 	mov	sp, #134217728	; 0x8000000
    8018:	e3a0b000 	mov	fp, #0, 0
    801c:	eb0019b1 	bl	e6e8 <_cstart>
    8020:	eb0019d1 	bl	e76c <rpi_reboot>

00008024 <PUT32>:
    8024:	e5801000 	str	r1, [r0]
    8028:	e12fff1e 	bx	lr

0000802c <GET32>:
    802c:	e5900000 	ldr	r0, [r0]
    8030:	e12fff1e 	bx	lr

00008034 <BRANCHTO>:
    8034:	e12fff10 	bx	r0

00008038 <sphere_hit>:
    8038:	e24dd010 	sub	sp, sp, #16, 0
    803c:	e92d43f0 	push	{r4, r5, r6, r7, r8, r9, lr}
    8040:	e24dd054 	sub	sp, sp, #84, 0	; 0x54
    8044:	e28dc070 	add	ip, sp, #112, 0	; 0x70
    8048:	e88c000f 	stm	ip, {r0, r1, r2, r3}
    804c:	e28d4038 	add	r4, sp, #56, 0	; 0x38
    8050:	e89c0007 	ldm	ip, {r0, r1, r2}
    8054:	e88d0007 	stm	sp, {r0, r1, r2}
    8058:	e28d3084 	add	r3, sp, #132, 0	; 0x84
    805c:	e893000e 	ldm	r3, {r1, r2, r3}
    8060:	e1a00004 	mov	r0, r4
    8064:	eb000611 	bl	98b0 <vec3_subtract>
    8068:	e28d3090 	add	r3, sp, #144, 0	; 0x90
    806c:	e8930007 	ldm	r3, {r0, r1, r2}
    8070:	eb00069d 	bl	9aec <vec3_length_squared>
    8074:	e1a06000 	mov	r6, r0
    8078:	e59d1098 	ldr	r1, [sp, #152]	; 0x98
    807c:	e59d0094 	ldr	r0, [sp, #148]	; 0x94
    8080:	e88d0003 	stm	sp, {r0, r1}
    8084:	e59d3090 	ldr	r3, [sp, #144]	; 0x90
    8088:	e8940007 	ldm	r4, {r0, r1, r2}
    808c:	eb00064a 	bl	99bc <vec3_dot>
    8090:	e1a05000 	mov	r5, r0
    8094:	e8940007 	ldm	r4, {r0, r1, r2}
    8098:	eb000693 	bl	9aec <vec3_length_squared>
    809c:	e1a04000 	mov	r4, r0
    80a0:	e59d807c 	ldr	r8, [sp, #124]	; 0x7c
    80a4:	e1a01008 	mov	r1, r8
    80a8:	e1a00008 	mov	r0, r8
    80ac:	eb00154e 	bl	d5ec <__aeabi_fmul>
    80b0:	e1a01000 	mov	r1, r0
    80b4:	e1a00004 	mov	r0, r4
    80b8:	eb0014a2 	bl	d348 <__aeabi_fsub>
    80bc:	e1a07000 	mov	r7, r0
    80c0:	e1a01005 	mov	r1, r5
    80c4:	e1a00005 	mov	r0, r5
    80c8:	eb001547 	bl	d5ec <__aeabi_fmul>
    80cc:	e1a04000 	mov	r4, r0
    80d0:	e1a01007 	mov	r1, r7
    80d4:	e1a00006 	mov	r0, r6
    80d8:	eb001543 	bl	d5ec <__aeabi_fmul>
    80dc:	e1a01000 	mov	r1, r0
    80e0:	e1a00004 	mov	r0, r4
    80e4:	eb001497 	bl	d348 <__aeabi_fsub>
    80e8:	e1a04000 	mov	r4, r0
    80ec:	e3a01000 	mov	r1, #0, 0
    80f0:	eb001628 	bl	d998 <__aeabi_fcmplt>
    80f4:	e3500000 	cmp	r0, #0, 0
    80f8:	1a000049 	bne	8224 <sphere_hit+0x1ec>
    80fc:	e1a00004 	mov	r0, r4
    8100:	eb000f45 	bl	be1c <sqrtf_babylonian>
    8104:	e1a07000 	mov	r7, r0
    8108:	e2850102 	add	r0, r5, #-2147483648	; 0x80000000
    810c:	e1a01007 	mov	r1, r7
    8110:	eb00148c 	bl	d348 <__aeabi_fsub>
    8114:	e1a01006 	mov	r1, r6
    8118:	eb001599 	bl	d784 <__aeabi_fdiv>
    811c:	e1a04000 	mov	r4, r0
    8120:	e59d109c 	ldr	r1, [sp, #156]	; 0x9c
    8124:	eb00161b 	bl	d998 <__aeabi_fcmplt>
    8128:	e3500000 	cmp	r0, #0, 0
    812c:	1a000004 	bne	8144 <sphere_hit+0x10c>
    8130:	e59d10a0 	ldr	r1, [sp, #160]	; 0xa0
    8134:	e1a00004 	mov	r0, r4
    8138:	eb001628 	bl	d9e0 <__aeabi_fcmpgt>
    813c:	e3500000 	cmp	r0, #0, 0
    8140:	0a00000f 	beq	8184 <sphere_hit+0x14c>
    8144:	e1a01005 	mov	r1, r5
    8148:	e1a00007 	mov	r0, r7
    814c:	eb00147d 	bl	d348 <__aeabi_fsub>
    8150:	e1a01006 	mov	r1, r6
    8154:	eb00158a 	bl	d784 <__aeabi_fdiv>
    8158:	e1a04000 	mov	r4, r0
    815c:	e1a01000 	mov	r1, r0
    8160:	e59d009c 	ldr	r0, [sp, #156]	; 0x9c
    8164:	eb00161d 	bl	d9e0 <__aeabi_fcmpgt>
    8168:	e3500000 	cmp	r0, #0, 0
    816c:	1a000031 	bne	8238 <sphere_hit+0x200>
    8170:	e1a01004 	mov	r1, r4
    8174:	e59d00a0 	ldr	r0, [sp, #160]	; 0xa0
    8178:	eb001606 	bl	d998 <__aeabi_fcmplt>
    817c:	e3500000 	cmp	r0, #0, 0
    8180:	1a00002e 	bne	8240 <sphere_hit+0x208>
    8184:	e59d50a4 	ldr	r5, [sp, #164]	; 0xa4
    8188:	e4854004 	str	r4, [r5], #4
    818c:	e28d6018 	add	r6, sp, #24, 0
    8190:	e1a00004 	mov	r0, r4
    8194:	eb001270 	bl	cb5c <__aeabi_f2d>
    8198:	e1cd01f0 	strd	r0, [sp, #16]
    819c:	e28d9090 	add	r9, sp, #144, 0	; 0x90
    81a0:	e8990007 	ldm	r9, {r0, r1, r2}
    81a4:	e88d0007 	stm	sp, {r0, r1, r2}
    81a8:	e28d7084 	add	r7, sp, #132, 0	; 0x84
    81ac:	e897000e 	ldm	r7, {r1, r2, r3}
    81b0:	e1a00006 	mov	r0, r6
    81b4:	eb00110a 	bl	c5e4 <ray_at>
    81b8:	e8960007 	ldm	r6, {r0, r1, r2}
    81bc:	e8850007 	stm	r5, {r0, r1, r2}
    81c0:	e59d3080 	ldr	r3, [sp, #128]	; 0x80
    81c4:	e59d20a4 	ldr	r2, [sp, #164]	; 0xa4
    81c8:	e5823020 	str	r3, [r2, #32]
    81cc:	e28d6044 	add	r6, sp, #68, 0	; 0x44
    81d0:	e28d306c 	add	r3, sp, #108, 0	; 0x6c
    81d4:	e9930007 	ldmib	r3, {r0, r1, r2}
    81d8:	e88d0007 	stm	sp, {r0, r1, r2}
    81dc:	e895000e 	ldm	r5, {r1, r2, r3}
    81e0:	e1a00006 	mov	r0, r6
    81e4:	eb0005b1 	bl	98b0 <vec3_subtract>
    81e8:	e28d402c 	add	r4, sp, #44, 0	; 0x2c
    81ec:	e58d8000 	str	r8, [sp]
    81f0:	e896000e 	ldm	r6, {r1, r2, r3}
    81f4:	e1a00004 	mov	r0, r4
    81f8:	eb00061f 	bl	9a7c <vec3_divide>
    81fc:	e28d300c 	add	r3, sp, #12, 0
    8200:	e8940007 	ldm	r4, {r0, r1, r2}
    8204:	e8830007 	stm	r3, {r0, r1, r2}
    8208:	e8990007 	ldm	r9, {r0, r1, r2}
    820c:	e88d0007 	stm	sp, {r0, r1, r2}
    8210:	e897000e 	ldm	r7, {r1, r2, r3}
    8214:	e59d00a4 	ldr	r0, [sp, #164]	; 0xa4
    8218:	eb001109 	bl	c644 <hit_record_set_face_normal>
    821c:	e3a00001 	mov	r0, #1, 0
    8220:	ea000000 	b	8228 <sphere_hit+0x1f0>
    8224:	e3a00000 	mov	r0, #0, 0
    8228:	e28dd054 	add	sp, sp, #84, 0	; 0x54
    822c:	e8bd43f0 	pop	{r4, r5, r6, r7, r8, r9, lr}
    8230:	e28dd010 	add	sp, sp, #16, 0
    8234:	e12fff1e 	bx	lr
    8238:	e3a00000 	mov	r0, #0, 0
    823c:	eafffff9 	b	8228 <sphere_hit+0x1f0>
    8240:	e3a00000 	mov	r0, #0, 0
    8244:	eafffff7 	b	8228 <sphere_hit+0x1f0>

00008248 <spheres_hit>:
    8248:	e24dd008 	sub	sp, sp, #8, 0
    824c:	e92d47f0 	push	{r4, r5, r6, r7, r8, r9, sl, lr}
    8250:	e24dd060 	sub	sp, sp, #96, 0	; 0x60
    8254:	e1a07000 	mov	r7, r0
    8258:	e1a06001 	mov	r6, r1
    825c:	e28d107c 	add	r1, sp, #124, 0	; 0x7c
    8260:	e981000c 	stmib	r1, {r2, r3}
    8264:	e59d8098 	ldr	r8, [sp, #152]	; 0x98
    8268:	e59d509c 	ldr	r5, [sp, #156]	; 0x9c
    826c:	e3a04000 	mov	r4, #0, 0
    8270:	e1a09004 	mov	r9, r4
    8274:	ea000000 	b	827c <spheres_hit+0x34>
    8278:	e2844001 	add	r4, r4, #1, 0
    827c:	e1540006 	cmp	r4, r6
    8280:	aa000021 	bge	830c <spheres_hit+0xc4>
    8284:	e084c104 	add	ip, r4, r4, lsl #2
    8288:	e28de028 	add	lr, sp, #40, 0	; 0x28
    828c:	e087c10c 	add	ip, r7, ip, lsl #2
    8290:	e8bc000f 	ldm	ip!, {r0, r1, r2, r3}
    8294:	e8ae000f 	stmia	lr!, {r0, r1, r2, r3}
    8298:	e59ca000 	ldr	sl, [ip]
    829c:	e58ea000 	str	sl, [lr]
    82a0:	e28d303c 	add	r3, sp, #60, 0	; 0x3c
    82a4:	e58d3024 	str	r3, [sp, #36]	; 0x24
    82a8:	e58d5020 	str	r5, [sp, #32]
    82ac:	e58d801c 	str	r8, [sp, #28]
    82b0:	e28dc004 	add	ip, sp, #4, 0
    82b4:	e28de080 	add	lr, sp, #128, 0	; 0x80
    82b8:	e8be000f 	ldm	lr!, {r0, r1, r2, r3}
    82bc:	e8ac000f 	stmia	ip!, {r0, r1, r2, r3}
    82c0:	e89e0003 	ldm	lr, {r0, r1}
    82c4:	e88c0003 	stm	ip, {r0, r1}
    82c8:	e58da000 	str	sl, [sp]
    82cc:	e28d3028 	add	r3, sp, #40, 0	; 0x28
    82d0:	e893000f 	ldm	r3, {r0, r1, r2, r3}
    82d4:	ebffff57 	bl	8038 <sphere_hit>
    82d8:	e3500000 	cmp	r0, #0, 0
    82dc:	0affffe5 	beq	8278 <spheres_hit+0x30>
    82e0:	e59d503c 	ldr	r5, [sp, #60]	; 0x3c
    82e4:	e59dc0a0 	ldr	ip, [sp, #160]	; 0xa0
    82e8:	e28de03c 	add	lr, sp, #60, 0	; 0x3c
    82ec:	e8be000f 	ldm	lr!, {r0, r1, r2, r3}
    82f0:	e8ac000f 	stmia	ip!, {r0, r1, r2, r3}
    82f4:	e8be000f 	ldm	lr!, {r0, r1, r2, r3}
    82f8:	e8ac000f 	stmia	ip!, {r0, r1, r2, r3}
    82fc:	e59e3000 	ldr	r3, [lr]
    8300:	e58c3000 	str	r3, [ip]
    8304:	e3a09001 	mov	r9, #1, 0
    8308:	eaffffda 	b	8278 <spheres_hit+0x30>
    830c:	e1a00009 	mov	r0, r9
    8310:	e28dd060 	add	sp, sp, #96, 0	; 0x60
    8314:	e8bd47f0 	pop	{r4, r5, r6, r7, r8, r9, sl, lr}
    8318:	e28dd008 	add	sp, sp, #8, 0
    831c:	e12fff1e 	bx	lr

00008320 <camera_init>:
    8320:	e92d4ff0 	push	{r4, r5, r6, r7, r8, r9, sl, fp, lr}
    8324:	e24dd0b4 	sub	sp, sp, #180, 0	; 0xb4
    8328:	e1a05000 	mov	r5, r0
    832c:	e28d802c 	add	r8, sp, #44, 0	; 0x2c
    8330:	e888000e 	stm	r8, {r1, r2, r3}
    8334:	e59da0fc 	ldr	sl, [sp, #252]	; 0xfc
    8338:	e59d00f0 	ldr	r0, [sp, #240]	; 0xf0
    833c:	eb000ec9 	bl	be68 <degrees_to_radians>
    8340:	e3a0143f 	mov	r1, #1056964608	; 0x3f000000
    8344:	eb0014a8 	bl	d5ec <__aeabi_fmul>
    8348:	eb000f11 	bl	bf94 <my_tan>
    834c:	e1a01000 	mov	r1, r0
    8350:	eb0013fd 	bl	d34c <__addsf3>
    8354:	e58d0014 	str	r0, [sp, #20]
    8358:	e59d10f4 	ldr	r1, [sp, #244]	; 0xf4
    835c:	eb0014a2 	bl	d5ec <__aeabi_fmul>
    8360:	e1a0b000 	mov	fp, r0
    8364:	e28d6038 	add	r6, sp, #56, 0	; 0x38
    8368:	e28d30d4 	add	r3, sp, #212, 0	; 0xd4
    836c:	e9930007 	ldmib	r3, {r0, r1, r2}
    8370:	e88d0007 	stm	sp, {r0, r1, r2}
    8374:	e898000e 	ldm	r8, {r1, r2, r3}
    8378:	e1a00006 	mov	r0, r6
    837c:	eb00054b 	bl	98b0 <vec3_subtract>
    8380:	e28d4018 	add	r4, sp, #24, 0
    8384:	e896000e 	ldm	r6, {r1, r2, r3}
    8388:	e1a00004 	mov	r0, r4
    838c:	eb0005f6 	bl	9b6c <vec3_normalize>
    8390:	e2856048 	add	r6, r5, #72, 0	; 0x48
    8394:	e8940007 	ldm	r4, {r0, r1, r2}
    8398:	e8860007 	stm	r6, {r0, r1, r2}
    839c:	e28d7044 	add	r7, sp, #68, 0	; 0x44
    83a0:	e88d0007 	stm	sp, {r0, r1, r2}
    83a4:	e28d30e4 	add	r3, sp, #228, 0	; 0xe4
    83a8:	e893000e 	ldm	r3, {r1, r2, r3}
    83ac:	e1a00007 	mov	r0, r7
    83b0:	eb000552 	bl	9900 <vec3_cross>
    83b4:	e897000e 	ldm	r7, {r1, r2, r3}
    83b8:	e1a00004 	mov	r0, r4
    83bc:	eb0005ea 	bl	9b6c <vec3_normalize>
    83c0:	e2857030 	add	r7, r5, #48, 0	; 0x30
    83c4:	e8940007 	ldm	r4, {r0, r1, r2}
    83c8:	e8870007 	stm	r7, {r0, r1, r2}
    83cc:	e88d0007 	stm	sp, {r0, r1, r2}
    83d0:	e896000e 	ldm	r6, {r1, r2, r3}
    83d4:	e1a00004 	mov	r0, r4
    83d8:	eb000548 	bl	9900 <vec3_cross>
    83dc:	e285903c 	add	r9, r5, #60, 0	; 0x3c
    83e0:	e8940007 	ldm	r4, {r0, r1, r2}
    83e4:	e8890007 	stm	r9, {r0, r1, r2}
    83e8:	e8980007 	ldm	r8, {r0, r1, r2}
    83ec:	e8850007 	stm	r5, {r0, r1, r2}
    83f0:	e1a0100a 	mov	r1, sl
    83f4:	e1a0000b 	mov	r0, fp
    83f8:	eb00147b 	bl	d5ec <__aeabi_fmul>
    83fc:	e58d0000 	str	r0, [sp]
    8400:	e897000e 	ldm	r7, {r1, r2, r3}
    8404:	e1a00004 	mov	r0, r4
    8408:	eb000586 	bl	9a28 <vec3_multiply>
    840c:	e2858018 	add	r8, r5, #24, 0
    8410:	e8940007 	ldm	r4, {r0, r1, r2}
    8414:	e8880007 	stm	r8, {r0, r1, r2}
    8418:	e1a0100a 	mov	r1, sl
    841c:	e59d0014 	ldr	r0, [sp, #20]
    8420:	eb001471 	bl	d5ec <__aeabi_fmul>
    8424:	e58d0000 	str	r0, [sp]
    8428:	e899000e 	ldm	r9, {r1, r2, r3}
    842c:	e1a00004 	mov	r0, r4
    8430:	eb00057c 	bl	9a28 <vec3_multiply>
    8434:	e2857024 	add	r7, r5, #36, 0	; 0x24
    8438:	e8940007 	ldm	r4, {r0, r1, r2}
    843c:	e8870007 	stm	r7, {r0, r1, r2}
    8440:	e28d9050 	add	r9, sp, #80, 0	; 0x50
    8444:	e3a0b101 	mov	fp, #1073741824	; 0x40000000
    8448:	e58db000 	str	fp, [sp]
    844c:	e898000e 	ldm	r8, {r1, r2, r3}
    8450:	e1a00009 	mov	r0, r9
    8454:	eb000588 	bl	9a7c <vec3_divide>
    8458:	e28d805c 	add	r8, sp, #92, 0	; 0x5c
    845c:	e899000e 	ldm	r9, {r1, r2, r3}
    8460:	e1a00008 	mov	r0, r8
    8464:	eb000593 	bl	9ab8 <vec3_negate>
    8468:	e28d9068 	add	r9, sp, #104, 0	; 0x68
    846c:	e58db000 	str	fp, [sp]
    8470:	e897000e 	ldm	r7, {r1, r2, r3}
    8474:	e1a00009 	mov	r0, r9
    8478:	eb00057f 	bl	9a7c <vec3_divide>
    847c:	e28db074 	add	fp, sp, #116, 0	; 0x74
    8480:	e899000e 	ldm	r9, {r1, r2, r3}
    8484:	e1a0000b 	mov	r0, fp
    8488:	eb00058a 	bl	9ab8 <vec3_negate>
    848c:	e28d7080 	add	r7, sp, #128, 0	; 0x80
    8490:	e58da000 	str	sl, [sp]
    8494:	e896000e 	ldm	r6, {r1, r2, r3}
    8498:	e1a00007 	mov	r0, r7
    849c:	eb000561 	bl	9a28 <vec3_multiply>
    84a0:	e28d608c 	add	r6, sp, #140, 0	; 0x8c
    84a4:	e897000e 	ldm	r7, {r1, r2, r3}
    84a8:	e1a00006 	mov	r0, r6
    84ac:	eb000581 	bl	9ab8 <vec3_negate>
    84b0:	e28d7098 	add	r7, sp, #152, 0	; 0x98
    84b4:	e8960007 	ldm	r6, {r0, r1, r2}
    84b8:	e88d0007 	stm	sp, {r0, r1, r2}
    84bc:	e89b000e 	ldm	fp, {r1, r2, r3}
    84c0:	e1a00007 	mov	r0, r7
    84c4:	eb0004e5 	bl	9860 <vec3_add>
    84c8:	e28d60a4 	add	r6, sp, #164, 0	; 0xa4
    84cc:	e8970007 	ldm	r7, {r0, r1, r2}
    84d0:	e88d0007 	stm	sp, {r0, r1, r2}
    84d4:	e898000e 	ldm	r8, {r1, r2, r3}
    84d8:	e1a00006 	mov	r0, r6
    84dc:	eb0004df 	bl	9860 <vec3_add>
    84e0:	e8960007 	ldm	r6, {r0, r1, r2}
    84e4:	e88d0007 	stm	sp, {r0, r1, r2}
    84e8:	e895000e 	ldm	r5, {r1, r2, r3}
    84ec:	e1a00004 	mov	r0, r4
    84f0:	eb0004da 	bl	9860 <vec3_add>
    84f4:	e285300c 	add	r3, r5, #12, 0
    84f8:	e8940007 	ldm	r4, {r0, r1, r2}
    84fc:	e8830007 	stm	r3, {r0, r1, r2}
    8500:	e3a0143f 	mov	r1, #1056964608	; 0x3f000000
    8504:	e59d00f8 	ldr	r0, [sp, #248]	; 0xf8
    8508:	eb001437 	bl	d5ec <__aeabi_fmul>
    850c:	e5850054 	str	r0, [r5, #84]	; 0x54
    8510:	e28dd0b4 	add	sp, sp, #180, 0	; 0xb4
    8514:	e8bd8ff0 	pop	{r4, r5, r6, r7, r8, r9, sl, fp, pc}

00008518 <get_ray>:
    8518:	e24dd010 	sub	sp, sp, #16, 0
    851c:	e92d47f0 	push	{r4, r5, r6, r7, r8, r9, sl, lr}
    8520:	e24dd0b8 	sub	sp, sp, #184, 0	; 0xb8
    8524:	e1a05000 	mov	r5, r0
    8528:	e28d40dc 	add	r4, sp, #220, 0	; 0xdc
    852c:	e884000e 	stm	r4, {r1, r2, r3}
    8530:	e28d6040 	add	r6, sp, #64, 0	; 0x40
    8534:	e1a00006 	mov	r0, r6
    8538:	eb0006be 	bl	a038 <random_in_unit_disk>
    853c:	e59d3130 	ldr	r3, [sp, #304]	; 0x130
    8540:	e58d3000 	str	r3, [sp]
    8544:	e896000e 	ldm	r6, {r1, r2, r3}
    8548:	e28d0034 	add	r0, sp, #52, 0	; 0x34
    854c:	eb000535 	bl	9a28 <vec3_multiply>
    8550:	e28d704c 	add	r7, sp, #76, 0	; 0x4c
    8554:	e59d3034 	ldr	r3, [sp, #52]	; 0x34
    8558:	e58d3000 	str	r3, [sp]
    855c:	e28d3f43 	add	r3, sp, #268	; 0x10c
    8560:	e893000e 	ldm	r3, {r1, r2, r3}
    8564:	e1a00007 	mov	r0, r7
    8568:	eb00052e 	bl	9a28 <vec3_multiply>
    856c:	e28d8058 	add	r8, sp, #88, 0	; 0x58
    8570:	e59d3038 	ldr	r3, [sp, #56]	; 0x38
    8574:	e58d3000 	str	r3, [sp]
    8578:	e28d3f46 	add	r3, sp, #280	; 0x118
    857c:	e893000e 	ldm	r3, {r1, r2, r3}
    8580:	e1a00008 	mov	r0, r8
    8584:	eb000527 	bl	9a28 <vec3_multiply>
    8588:	e28d6028 	add	r6, sp, #40, 0	; 0x28
    858c:	e8980007 	ldm	r8, {r0, r1, r2}
    8590:	e88d0007 	stm	sp, {r0, r1, r2}
    8594:	e897000e 	ldm	r7, {r1, r2, r3}
    8598:	e1a00006 	mov	r0, r6
    859c:	eb0004af 	bl	9860 <vec3_add>
    85a0:	e28d701c 	add	r7, sp, #28, 0
    85a4:	e8960007 	ldm	r6, {r0, r1, r2}
    85a8:	e88d0007 	stm	sp, {r0, r1, r2}
    85ac:	e894000e 	ldm	r4, {r1, r2, r3}
    85b0:	e1a00007 	mov	r0, r7
    85b4:	eb0004a9 	bl	9860 <vec3_add>
    85b8:	e28d8064 	add	r8, sp, #100, 0	; 0x64
    85bc:	e59d3134 	ldr	r3, [sp, #308]	; 0x134
    85c0:	e58d3000 	str	r3, [sp]
    85c4:	e28d30f4 	add	r3, sp, #244, 0	; 0xf4
    85c8:	e893000e 	ldm	r3, {r1, r2, r3}
    85cc:	e1a00008 	mov	r0, r8
    85d0:	eb000514 	bl	9a28 <vec3_multiply>
    85d4:	e28d9070 	add	r9, sp, #112, 0	; 0x70
    85d8:	e59d3138 	ldr	r3, [sp, #312]	; 0x138
    85dc:	e58d3000 	str	r3, [sp]
    85e0:	e28d3c01 	add	r3, sp, #256	; 0x100
    85e4:	e893000e 	ldm	r3, {r1, r2, r3}
    85e8:	e1a00009 	mov	r0, r9
    85ec:	eb00050d 	bl	9a28 <vec3_multiply>
    85f0:	e28da07c 	add	sl, sp, #124, 0	; 0x7c
    85f4:	e894000e 	ldm	r4, {r1, r2, r3}
    85f8:	e1a0000a 	mov	r0, sl
    85fc:	eb00052d 	bl	9ab8 <vec3_negate>
    8600:	e28d4088 	add	r4, sp, #136, 0	; 0x88
    8604:	e896000e 	ldm	r6, {r1, r2, r3}
    8608:	e1a00004 	mov	r0, r4
    860c:	eb000529 	bl	9ab8 <vec3_negate>
    8610:	e28d6094 	add	r6, sp, #148, 0	; 0x94
    8614:	e8940007 	ldm	r4, {r0, r1, r2}
    8618:	e88d0007 	stm	sp, {r0, r1, r2}
    861c:	e89a000e 	ldm	sl, {r1, r2, r3}
    8620:	e1a00006 	mov	r0, r6
    8624:	eb00048d 	bl	9860 <vec3_add>
    8628:	e28d40a0 	add	r4, sp, #160, 0	; 0xa0
    862c:	e8960007 	ldm	r6, {r0, r1, r2}
    8630:	e88d0007 	stm	sp, {r0, r1, r2}
    8634:	e899000e 	ldm	r9, {r1, r2, r3}
    8638:	e1a00004 	mov	r0, r4
    863c:	eb000487 	bl	9860 <vec3_add>
    8640:	e28d60ac 	add	r6, sp, #172, 0	; 0xac
    8644:	e8940007 	ldm	r4, {r0, r1, r2}
    8648:	e88d0007 	stm	sp, {r0, r1, r2}
    864c:	e898000e 	ldm	r8, {r1, r2, r3}
    8650:	e1a00006 	mov	r0, r6
    8654:	eb000481 	bl	9860 <vec3_add>
    8658:	e28d4010 	add	r4, sp, #16, 0
    865c:	e8960007 	ldm	r6, {r0, r1, r2}
    8660:	e88d0007 	stm	sp, {r0, r1, r2}
    8664:	e28d30e8 	add	r3, sp, #232, 0	; 0xe8
    8668:	e893000e 	ldm	r3, {r1, r2, r3}
    866c:	e1a00004 	mov	r0, r4
    8670:	eb00047a 	bl	9860 <vec3_add>
    8674:	e8970007 	ldm	r7, {r0, r1, r2}
    8678:	e8850007 	stm	r5, {r0, r1, r2}
    867c:	e285300c 	add	r3, r5, #12, 0
    8680:	e8940007 	ldm	r4, {r0, r1, r2}
    8684:	e8830007 	stm	r3, {r0, r1, r2}
    8688:	e1a00005 	mov	r0, r5
    868c:	e28dd0b8 	add	sp, sp, #184, 0	; 0xb8
    8690:	e8bd47f0 	pop	{r4, r5, r6, r7, r8, r9, sl, lr}
    8694:	e28dd010 	add	sp, sp, #16, 0
    8698:	e12fff1e 	bx	lr

0000869c <makeMaterial>:
    869c:	e24dd010 	sub	sp, sp, #16, 0
    86a0:	e1a0c000 	mov	ip, r0
    86a4:	e5c01000 	strb	r1, [r0]
    86a8:	e58d2004 	str	r2, [sp, #4]
    86ac:	e58d3008 	str	r3, [sp, #8]
    86b0:	e59d3010 	ldr	r3, [sp, #16]
    86b4:	e58d300c 	str	r3, [sp, #12]
    86b8:	e3510001 	cmp	r1, #1, 0
    86bc:	0a000009 	beq	86e8 <makeMaterial+0x4c>
    86c0:	e3510002 	cmp	r1, #2, 0
    86c4:	0a00000b 	beq	86f8 <makeMaterial+0x5c>
    86c8:	e3510000 	cmp	r1, #0, 0
    86cc:	0a000001 	beq	86d8 <makeMaterial+0x3c>
    86d0:	e28dd010 	add	sp, sp, #16, 0
    86d4:	e12fff1e 	bx	lr
    86d8:	e28d3010 	add	r3, sp, #16, 0
    86dc:	e9130007 	ldmdb	r3, {r0, r1, r2}
    86e0:	e98c0007 	stmib	ip, {r0, r1, r2}
    86e4:	eafffff9 	b	86d0 <makeMaterial+0x34>
    86e8:	e28d3010 	add	r3, sp, #16, 0
    86ec:	e9130007 	ldmdb	r3, {r0, r1, r2}
    86f0:	e98c0007 	stmib	ip, {r0, r1, r2}
    86f4:	eafffff5 	b	86d0 <makeMaterial+0x34>
    86f8:	e5802004 	str	r2, [r0, #4]
    86fc:	eafffff3 	b	86d0 <makeMaterial+0x34>

00008700 <makeSphere>:
    8700:	e24dd010 	sub	sp, sp, #16, 0
    8704:	e1a0c000 	mov	ip, r0
    8708:	e58d1004 	str	r1, [sp, #4]
    870c:	e58d2008 	str	r2, [sp, #8]
    8710:	e58d300c 	str	r3, [sp, #12]
    8714:	e28d3010 	add	r3, sp, #16, 0
    8718:	e9130007 	ldmdb	r3, {r0, r1, r2}
    871c:	e88c0007 	stm	ip, {r0, r1, r2}
    8720:	e59d3010 	ldr	r3, [sp, #16]
    8724:	e58c300c 	str	r3, [ip, #12]
    8728:	e59d3014 	ldr	r3, [sp, #20]
    872c:	e58c3010 	str	r3, [ip, #16]
    8730:	e28dd010 	add	sp, sp, #16, 0
    8734:	e12fff1e 	bx	lr

00008738 <background_color>:
    8738:	e92d41f0 	push	{r4, r5, r6, r7, r8, lr}
    873c:	e24dd060 	sub	sp, sp, #96, 0	; 0x60
    8740:	e1a06000 	mov	r6, r0
    8744:	e28dc014 	add	ip, sp, #20, 0
    8748:	e88c000e 	stm	ip, {r1, r2, r3}
    874c:	e89c000e 	ldm	ip, {r1, r2, r3}
    8750:	e28d003c 	add	r0, sp, #60, 0	; 0x3c
    8754:	eb000504 	bl	9b6c <vec3_normalize>
    8758:	e59d0040 	ldr	r0, [sp, #64]	; 0x40
    875c:	eb0010fe 	bl	cb5c <__aeabi_f2d>
    8760:	e3a02000 	mov	r2, #0, 0
    8764:	e59f3088 	ldr	r3, [pc, #136]	; 87f4 <background_color+0xbc>
    8768:	eb001024 	bl	c800 <__adddf3>
    876c:	e3a02000 	mov	r2, #0, 0
    8770:	e59f3080 	ldr	r3, [pc, #128]	; 87f8 <background_color+0xc0>
    8774:	eb001125 	bl	cc10 <__aeabi_dmul>
    8778:	eb0012c8 	bl	d2a0 <__aeabi_d2f>
    877c:	e1a08000 	mov	r8, r0
    8780:	e59f3074 	ldr	r3, [pc, #116]	; 87fc <background_color+0xc4>
    8784:	e28d5030 	add	r5, sp, #48, 0	; 0x30
    8788:	e8930007 	ldm	r3, {r0, r1, r2}
    878c:	e8850007 	stm	r5, {r0, r1, r2}
    8790:	e28d4024 	add	r4, sp, #36, 0	; 0x24
    8794:	e283300c 	add	r3, r3, #12, 0
    8798:	e8930007 	ldm	r3, {r0, r1, r2}
    879c:	e8840007 	stm	r4, {r0, r1, r2}
    87a0:	e28d7048 	add	r7, sp, #72, 0	; 0x48
    87a4:	e1a01008 	mov	r1, r8
    87a8:	e3a005fe 	mov	r0, #1065353216	; 0x3f800000
    87ac:	eb0012e5 	bl	d348 <__aeabi_fsub>
    87b0:	e58d0000 	str	r0, [sp]
    87b4:	e895000e 	ldm	r5, {r1, r2, r3}
    87b8:	e1a00007 	mov	r0, r7
    87bc:	eb000499 	bl	9a28 <vec3_multiply>
    87c0:	e28d5054 	add	r5, sp, #84, 0	; 0x54
    87c4:	e58d8000 	str	r8, [sp]
    87c8:	e894000e 	ldm	r4, {r1, r2, r3}
    87cc:	e1a00005 	mov	r0, r5
    87d0:	eb000494 	bl	9a28 <vec3_multiply>
    87d4:	e8950007 	ldm	r5, {r0, r1, r2}
    87d8:	e88d0007 	stm	sp, {r0, r1, r2}
    87dc:	e897000e 	ldm	r7, {r1, r2, r3}
    87e0:	e1a00006 	mov	r0, r6
    87e4:	eb00041d 	bl	9860 <vec3_add>
    87e8:	e1a00006 	mov	r0, r6
    87ec:	e28dd060 	add	sp, sp, #96, 0	; 0x60
    87f0:	e8bd81f0 	pop	{r4, r5, r6, r7, r8, pc}
    87f4:	3ff00000 	.word	0x3ff00000
    87f8:	3fe00000 	.word	0x3fe00000
    87fc:	0000e9fc 	.word	0x0000e9fc

00008800 <ray_color_from_world>:
    8800:	e24dd008 	sub	sp, sp, #8, 0
    8804:	e92d41f0 	push	{r4, r5, r6, r7, r8, lr}
    8808:	e24dd0a8 	sub	sp, sp, #168, 0	; 0xa8
    880c:	e1a04000 	mov	r4, r0
    8810:	e58d30c4 	str	r3, [sp, #196]	; 0xc4
    8814:	e59d70dc 	ldr	r7, [sp, #220]	; 0xdc
    8818:	e3570000 	cmp	r7, #0, 0
    881c:	da000030 	ble	88e4 <ray_color_from_world+0xe4>
    8820:	e1a05001 	mov	r5, r1
    8824:	e1a06002 	mov	r6, r2
    8828:	e28d3084 	add	r3, sp, #132, 0	; 0x84
    882c:	e58d3018 	str	r3, [sp, #24]
    8830:	e59f3164 	ldr	r3, [pc, #356]	; 899c <ray_color_from_world+0x19c>
    8834:	e58d3014 	str	r3, [sp, #20]
    8838:	e59f3160 	ldr	r3, [pc, #352]	; 89a0 <ray_color_from_world+0x1a0>
    883c:	e58d3010 	str	r3, [sp, #16]
    8840:	e28d30cc 	add	r3, sp, #204, 0	; 0xcc
    8844:	e893000f 	ldm	r3, {r0, r1, r2, r3}
    8848:	e88d000f 	stm	sp, {r0, r1, r2, r3}
    884c:	e59d30c8 	ldr	r3, [sp, #200]	; 0xc8
    8850:	e59d20c4 	ldr	r2, [sp, #196]	; 0xc4
    8854:	e1a01006 	mov	r1, r6
    8858:	e1a00005 	mov	r0, r5
    885c:	ebfffe79 	bl	8248 <spheres_hit>
    8860:	e3500000 	cmp	r0, #0, 0
    8864:	0a000047 	beq	8988 <ray_color_from_world+0x188>
    8868:	e59d80a4 	ldr	r8, [sp, #164]	; 0xa4
    886c:	e28d306c 	add	r3, sp, #108, 0	; 0x6c
    8870:	e58d3040 	str	r3, [sp, #64]	; 0x40
    8874:	e28d3048 	add	r3, sp, #72, 0	; 0x48
    8878:	e58d303c 	str	r3, [sp, #60]	; 0x3c
    887c:	e28dc018 	add	ip, sp, #24, 0
    8880:	e28de084 	add	lr, sp, #132, 0	; 0x84
    8884:	e8be000f 	ldm	lr!, {r0, r1, r2, r3}
    8888:	e8ac000f 	stmia	ip!, {r0, r1, r2, r3}
    888c:	e8be000f 	ldm	lr!, {r0, r1, r2, r3}
    8890:	e8ac000f 	stmia	ip!, {r0, r1, r2, r3}
    8894:	e59e3000 	ldr	r3, [lr]
    8898:	e58c3000 	str	r3, [ip]
    889c:	e1a0c00d 	mov	ip, sp
    88a0:	e28de0c4 	add	lr, sp, #196, 0	; 0xc4
    88a4:	e8be000f 	ldm	lr!, {r0, r1, r2, r3}
    88a8:	e8ac000f 	stmia	ip!, {r0, r1, r2, r3}
    88ac:	e89e0003 	ldm	lr, {r0, r1}
    88b0:	e88c0003 	stm	ip, {r0, r1}
    88b4:	e898000f 	ldm	r8, {r0, r1, r2, r3}
    88b8:	eb000f05 	bl	c4d4 <scatter>
    88bc:	e3500000 	cmp	r0, #0, 0
    88c0:	1a000013 	bne	8914 <ray_color_from_world+0x114>
    88c4:	e3a03000 	mov	r3, #0, 0
    88c8:	e58d3060 	str	r3, [sp, #96]	; 0x60
    88cc:	e58d3064 	str	r3, [sp, #100]	; 0x64
    88d0:	e58d3068 	str	r3, [sp, #104]	; 0x68
    88d4:	e28d3060 	add	r3, sp, #96, 0	; 0x60
    88d8:	e8930007 	ldm	r3, {r0, r1, r2}
    88dc:	e8840007 	stm	r4, {r0, r1, r2}
    88e0:	ea000006 	b	8900 <ray_color_from_world+0x100>
    88e4:	e3a03000 	mov	r3, #0, 0
    88e8:	e58d306c 	str	r3, [sp, #108]	; 0x6c
    88ec:	e58d3070 	str	r3, [sp, #112]	; 0x70
    88f0:	e58d3074 	str	r3, [sp, #116]	; 0x74
    88f4:	e28d306c 	add	r3, sp, #108, 0	; 0x6c
    88f8:	e8930007 	ldm	r3, {r0, r1, r2}
    88fc:	e8840007 	stm	r4, {r0, r1, r2}
    8900:	e1a00004 	mov	r0, r4
    8904:	e28dd0a8 	add	sp, sp, #168, 0	; 0xa8
    8908:	e8bd41f0 	pop	{r4, r5, r6, r7, r8, lr}
    890c:	e28dd008 	add	sp, sp, #8, 0
    8910:	e12fff1e 	bx	lr
    8914:	e2477001 	sub	r7, r7, #1, 0
    8918:	e58d7014 	str	r7, [sp, #20]
    891c:	e1a0c00d 	mov	ip, sp
    8920:	e28de070 	add	lr, sp, #112, 0	; 0x70
    8924:	e8be000f 	ldm	lr!, {r0, r1, r2, r3}
    8928:	e8ac000f 	stmia	ip!, {r0, r1, r2, r3}
    892c:	e59e3000 	ldr	r3, [lr]
    8930:	e58c3000 	str	r3, [ip]
    8934:	e59d306c 	ldr	r3, [sp, #108]	; 0x6c
    8938:	e1a02006 	mov	r2, r6
    893c:	e1a01005 	mov	r1, r5
    8940:	e28d0054 	add	r0, sp, #84, 0	; 0x54
    8944:	ebffffad 	bl	8800 <ray_color_from_world>
    8948:	e59d1054 	ldr	r1, [sp, #84]	; 0x54
    894c:	e59d0048 	ldr	r0, [sp, #72]	; 0x48
    8950:	eb001325 	bl	d5ec <__aeabi_fmul>
    8954:	e58d0060 	str	r0, [sp, #96]	; 0x60
    8958:	e59d1058 	ldr	r1, [sp, #88]	; 0x58
    895c:	e59d004c 	ldr	r0, [sp, #76]	; 0x4c
    8960:	eb001321 	bl	d5ec <__aeabi_fmul>
    8964:	e58d0064 	str	r0, [sp, #100]	; 0x64
    8968:	e59d105c 	ldr	r1, [sp, #92]	; 0x5c
    896c:	e59d0050 	ldr	r0, [sp, #80]	; 0x50
    8970:	eb00131d 	bl	d5ec <__aeabi_fmul>
    8974:	e58d0068 	str	r0, [sp, #104]	; 0x68
    8978:	e28d3060 	add	r3, sp, #96, 0	; 0x60
    897c:	e8930007 	ldm	r3, {r0, r1, r2}
    8980:	e8840007 	stm	r4, {r0, r1, r2}
    8984:	eaffffdd 	b	8900 <ray_color_from_world+0x100>
    8988:	e28d30d0 	add	r3, sp, #208, 0	; 0xd0
    898c:	e893000e 	ldm	r3, {r1, r2, r3}
    8990:	e1a00004 	mov	r0, r4
    8994:	ebffff67 	bl	8738 <background_color>
    8998:	eaffffd8 	b	8900 <ray_color_from_world+0x100>
    899c:	7f800000 	.word	0x7f800000
    89a0:	3a83126f 	.word	0x3a83126f

000089a4 <ray_color_part7>:
    89a4:	e92d41f0 	push	{r4, r5, r6, r7, r8, lr}
    89a8:	e24dd098 	sub	sp, sp, #152, 0	; 0x98
    89ac:	e1a05000 	mov	r5, r0
    89b0:	e1a04001 	mov	r4, r1
    89b4:	e1a0c002 	mov	ip, r2
    89b8:	e1a0e003 	mov	lr, r3
    89bc:	e28d3050 	add	r3, sp, #80, 0	; 0x50
    89c0:	e58d3018 	str	r3, [sp, #24]
    89c4:	e59f3118 	ldr	r3, [pc, #280]	; 8ae4 <ray_color_part7+0x140>
    89c8:	e58d3014 	str	r3, [sp, #20]
    89cc:	e3a03000 	mov	r3, #0, 0
    89d0:	e58d3010 	str	r3, [sp, #16]
    89d4:	e2813008 	add	r3, r1, #8, 0
    89d8:	e893000f 	ldm	r3, {r0, r1, r2, r3}
    89dc:	e88d000f 	stm	sp, {r0, r1, r2, r3}
    89e0:	e894000c 	ldm	r4, {r2, r3}
    89e4:	e1a0100e 	mov	r1, lr
    89e8:	e1a0000c 	mov	r0, ip
    89ec:	ebfffe15 	bl	8248 <spheres_hit>
    89f0:	e3500000 	cmp	r0, #0, 0
    89f4:	1a00002a 	bne	8aa4 <ray_color_part7+0x100>
    89f8:	e59f30e8 	ldr	r3, [pc, #232]	; 8ae8 <ray_color_part7+0x144>
    89fc:	e28d6044 	add	r6, sp, #68, 0	; 0x44
    8a00:	e283200c 	add	r2, r3, #12, 0
    8a04:	e8920007 	ldm	r2, {r0, r1, r2}
    8a08:	e8860007 	stm	r6, {r0, r1, r2}
    8a0c:	e28d7038 	add	r7, sp, #56, 0	; 0x38
    8a10:	e8930007 	ldm	r3, {r0, r1, r2}
    8a14:	e8870007 	stm	r7, {r0, r1, r2}
    8a18:	e284400c 	add	r4, r4, #12, 0
    8a1c:	e894000e 	ldm	r4, {r1, r2, r3}
    8a20:	e28d002c 	add	r0, sp, #44, 0	; 0x2c
    8a24:	eb000450 	bl	9b6c <vec3_normalize>
    8a28:	e59d0030 	ldr	r0, [sp, #48]	; 0x30
    8a2c:	eb00104a 	bl	cb5c <__aeabi_f2d>
    8a30:	e3a02000 	mov	r2, #0, 0
    8a34:	e59f30b0 	ldr	r3, [pc, #176]	; 8aec <ray_color_part7+0x148>
    8a38:	eb000f70 	bl	c800 <__adddf3>
    8a3c:	e3a02000 	mov	r2, #0, 0
    8a40:	e59f30a8 	ldr	r3, [pc, #168]	; 8af0 <ray_color_part7+0x14c>
    8a44:	eb001071 	bl	cc10 <__aeabi_dmul>
    8a48:	eb001214 	bl	d2a0 <__aeabi_d2f>
    8a4c:	e1a08000 	mov	r8, r0
    8a50:	e28d4080 	add	r4, sp, #128, 0	; 0x80
    8a54:	e1a01000 	mov	r1, r0
    8a58:	e3a005fe 	mov	r0, #1065353216	; 0x3f800000
    8a5c:	eb001239 	bl	d348 <__aeabi_fsub>
    8a60:	e58d0000 	str	r0, [sp]
    8a64:	e897000e 	ldm	r7, {r1, r2, r3}
    8a68:	e1a00004 	mov	r0, r4
    8a6c:	eb0003ed 	bl	9a28 <vec3_multiply>
    8a70:	e28d708c 	add	r7, sp, #140, 0	; 0x8c
    8a74:	e58d8000 	str	r8, [sp]
    8a78:	e896000e 	ldm	r6, {r1, r2, r3}
    8a7c:	e1a00007 	mov	r0, r7
    8a80:	eb0003e8 	bl	9a28 <vec3_multiply>
    8a84:	e8970007 	ldm	r7, {r0, r1, r2}
    8a88:	e88d0007 	stm	sp, {r0, r1, r2}
    8a8c:	e894000e 	ldm	r4, {r1, r2, r3}
    8a90:	e1a00005 	mov	r0, r5
    8a94:	eb000371 	bl	9860 <vec3_add>
    8a98:	e1a00005 	mov	r0, r5
    8a9c:	e28dd098 	add	sp, sp, #152, 0	; 0x98
    8aa0:	e8bd81f0 	pop	{r4, r5, r6, r7, r8, pc}
    8aa4:	e59f203c 	ldr	r2, [pc, #60]	; 8ae8 <ray_color_part7+0x144>
    8aa8:	e28d3020 	add	r3, sp, #32, 0
    8aac:	e8920007 	ldm	r2, {r0, r1, r2}
    8ab0:	e8830007 	stm	r3, {r0, r1, r2}
    8ab4:	e28d4074 	add	r4, sp, #116, 0	; 0x74
    8ab8:	e88d0007 	stm	sp, {r0, r1, r2}
    8abc:	e28d3060 	add	r3, sp, #96, 0	; 0x60
    8ac0:	e893000e 	ldm	r3, {r1, r2, r3}
    8ac4:	e1a00004 	mov	r0, r4
    8ac8:	eb000364 	bl	9860 <vec3_add>
    8acc:	e3a0343f 	mov	r3, #1056964608	; 0x3f000000
    8ad0:	e58d3000 	str	r3, [sp]
    8ad4:	e894000e 	ldm	r4, {r1, r2, r3}
    8ad8:	e1a00005 	mov	r0, r5
    8adc:	eb0003d1 	bl	9a28 <vec3_multiply>
    8ae0:	eaffffec 	b	8a98 <ray_color_part7+0xf4>
    8ae4:	7f800000 	.word	0x7f800000
    8ae8:	0000e9fc 	.word	0x0000e9fc
    8aec:	3ff00000 	.word	0x3ff00000
    8af0:	3fe00000 	.word	0x3fe00000

00008af4 <drawRays>:
    8af4:	e92d4ff0 	push	{r4, r5, r6, r7, r8, r9, sl, fp, lr}
    8af8:	e24ddf87 	sub	sp, sp, #540	; 0x21c
    8afc:	eb001666 	bl	e49c <uart_init>
    8b00:	eb000102 	bl	8f10 <fb_init>
    8b04:	e28da07c 	add	sl, sp, #124, 0	; 0x7c
    8b08:	e59fb3a0 	ldr	fp, [pc, #928]	; 8eb0 <drawRays+0x3bc>
    8b0c:	e3a0543f 	mov	r5, #1056964608	; 0x3f000000
    8b10:	e58d5000 	str	r5, [sp]
    8b14:	e1a0300b 	mov	r3, fp
    8b18:	e59f2394 	ldr	r2, [pc, #916]	; 8eb4 <drawRays+0x3c0>
    8b1c:	e3a01000 	mov	r1, #0, 0
    8b20:	e1a0000a 	mov	r0, sl
    8b24:	ebfffedc 	bl	869c <makeMaterial>
    8b28:	e28d908c 	add	r9, sp, #140, 0	; 0x8c
    8b2c:	e59f6384 	ldr	r6, [pc, #900]	; 8eb8 <drawRays+0x3c4>
    8b30:	e3a04000 	mov	r4, #0, 0
    8b34:	e58d4000 	str	r4, [sp]
    8b38:	e1a03006 	mov	r3, r6
    8b3c:	e1a02006 	mov	r2, r6
    8b40:	e3a01000 	mov	r1, #0, 0
    8b44:	e1a00009 	mov	r0, r9
    8b48:	ebfffed3 	bl	869c <makeMaterial>
    8b4c:	e28d809c 	add	r8, sp, #156, 0	; 0x9c
    8b50:	e58d4000 	str	r4, [sp]
    8b54:	e1a03004 	mov	r3, r4
    8b58:	e3a025ff 	mov	r2, #1069547520	; 0x3fc00000
    8b5c:	e3a01002 	mov	r1, #2, 0
    8b60:	e1a00008 	mov	r0, r8
    8b64:	ebfffecc 	bl	869c <makeMaterial>
    8b68:	e28d70ac 	add	r7, sp, #172, 0	; 0xac
    8b6c:	e58db000 	str	fp, [sp]
    8b70:	e59f3344 	ldr	r3, [pc, #836]	; 8ebc <drawRays+0x3c8>
    8b74:	e1a02006 	mov	r2, r6
    8b78:	e3a01001 	mov	r1, #1, 0
    8b7c:	e1a00007 	mov	r0, r7
    8b80:	ebfffec5 	bl	869c <makeMaterial>
    8b84:	e59f6334 	ldr	r6, [pc, #820]	; 8ec0 <drawRays+0x3cc>
    8b88:	e58da004 	str	sl, [sp, #4]
    8b8c:	e58d5000 	str	r5, [sp]
    8b90:	e1a03006 	mov	r3, r6
    8b94:	e1a02004 	mov	r2, r4
    8b98:	e1a01004 	mov	r1, r4
    8b9c:	e28d00bc 	add	r0, sp, #188, 0	; 0xbc
    8ba0:	ebfffed6 	bl	8700 <makeSphere>
    8ba4:	e58d9004 	str	r9, [sp, #4]
    8ba8:	e59f3314 	ldr	r3, [pc, #788]	; 8ec4 <drawRays+0x3d0>
    8bac:	e58d3000 	str	r3, [sp]
    8bb0:	e1a03006 	mov	r3, r6
    8bb4:	e59f230c 	ldr	r2, [pc, #780]	; 8ec8 <drawRays+0x3d4>
    8bb8:	e1a01004 	mov	r1, r4
    8bbc:	e28d00d0 	add	r0, sp, #208, 0	; 0xd0
    8bc0:	ebfffece 	bl	8700 <makeSphere>
    8bc4:	e58d8004 	str	r8, [sp, #4]
    8bc8:	e59f32fc 	ldr	r3, [pc, #764]	; 8ecc <drawRays+0x3d8>
    8bcc:	e58d3000 	str	r3, [sp]
    8bd0:	e1a03006 	mov	r3, r6
    8bd4:	e1a02004 	mov	r2, r4
    8bd8:	e1a01006 	mov	r1, r6
    8bdc:	e28d00e4 	add	r0, sp, #228, 0	; 0xe4
    8be0:	ebfffec6 	bl	8700 <makeSphere>
    8be4:	e3a085fe 	mov	r8, #1065353216	; 0x3f800000
    8be8:	e58d7004 	str	r7, [sp, #4]
    8bec:	e58d5000 	str	r5, [sp]
    8bf0:	e1a03006 	mov	r3, r6
    8bf4:	e1a02004 	mov	r2, r4
    8bf8:	e1a01008 	mov	r1, r8
    8bfc:	e28d00f8 	add	r0, sp, #248, 0	; 0xf8
    8c00:	ebfffebe 	bl	8700 <makeSphere>
    8c04:	e28d5e16 	add	r5, sp, #352	; 0x160
    8c08:	e59f32c0 	ldr	r3, [pc, #704]	; 8ed0 <drawRays+0x3dc>
    8c0c:	e8930007 	ldm	r3, {r0, r1, r2}
    8c10:	e8850007 	stm	r5, {r0, r1, r2}
    8c14:	e58d4154 	str	r4, [sp, #340]	; 0x154
    8c18:	e58d4158 	str	r4, [sp, #344]	; 0x158
    8c1c:	e58d615c 	str	r6, [sp, #348]	; 0x15c
    8c20:	e58d4148 	str	r4, [sp, #328]	; 0x148
    8c24:	e58d814c 	str	r8, [sp, #332]	; 0x14c
    8c28:	e58d4150 	str	r4, [sp, #336]	; 0x150
    8c2c:	e28d7f71 	add	r7, sp, #452	; 0x1c4
    8c30:	e28d6f55 	add	r6, sp, #340	; 0x154
    8c34:	e8960007 	ldm	r6, {r0, r1, r2}
    8c38:	e88d0007 	stm	sp, {r0, r1, r2}
    8c3c:	e895000e 	ldm	r5, {r1, r2, r3}
    8c40:	e1a00007 	mov	r0, r7
    8c44:	eb000319 	bl	98b0 <vec3_subtract>
    8c48:	e8970007 	ldm	r7, {r0, r1, r2}
    8c4c:	eb0003bd 	bl	9b48 <vec3_length>
    8c50:	e58d0024 	str	r0, [sp, #36]	; 0x24
    8c54:	e3a07101 	mov	r7, #1073741824	; 0x40000000
    8c58:	e58d7020 	str	r7, [sp, #32]
    8c5c:	e59f3270 	ldr	r3, [pc, #624]	; 8ed4 <drawRays+0x3e0>
    8c60:	e58d301c 	str	r3, [sp, #28]
    8c64:	e59f326c 	ldr	r3, [pc, #620]	; 8ed8 <drawRays+0x3e4>
    8c68:	e58d3018 	str	r3, [sp, #24]
    8c6c:	e28d300c 	add	r3, sp, #12, 0
    8c70:	e28d2f52 	add	r2, sp, #328	; 0x148
    8c74:	e8920007 	ldm	r2, {r0, r1, r2}
    8c78:	e8830007 	stm	r3, {r0, r1, r2}
    8c7c:	e8960007 	ldm	r6, {r0, r1, r2}
    8c80:	e88d0007 	stm	sp, {r0, r1, r2}
    8c84:	e895000e 	ldm	r5, {r1, r2, r3}
    8c88:	e28d0f5b 	add	r0, sp, #364	; 0x16c
    8c8c:	ebfffda3 	bl	8320 <camera_init>
    8c90:	e3a02000 	mov	r2, #0, 0
    8c94:	e59f3240 	ldr	r3, [pc, #576]	; 8edc <drawRays+0x3e8>
    8c98:	e1cd20f8 	strd	r2, [sp, #8]
    8c9c:	e3a02202 	mov	r2, #536870912	; 0x20000000
    8ca0:	e59f3238 	ldr	r3, [pc, #568]	; 8ee0 <drawRays+0x3ec>
    8ca4:	e1cd20f0 	strd	r2, [sp]
    8ca8:	e3a02000 	mov	r2, #0, 0
    8cac:	e3a03101 	mov	r3, #1073741824	; 0x40000000
    8cb0:	e59f022c 	ldr	r0, [pc, #556]	; 8ee4 <drawRays+0x3f0>
    8cb4:	eb000c00 	bl	bcbc <printf_>
    8cb8:	e58d413c 	str	r4, [sp, #316]	; 0x13c
    8cbc:	e58d4140 	str	r4, [sp, #320]	; 0x140
    8cc0:	e58d4144 	str	r4, [sp, #324]	; 0x144
    8cc4:	e59f321c 	ldr	r3, [pc, #540]	; 8ee8 <drawRays+0x3f4>
    8cc8:	e58d3130 	str	r3, [sp, #304]	; 0x130
    8ccc:	e58d4134 	str	r4, [sp, #308]	; 0x134
    8cd0:	e58d4138 	str	r4, [sp, #312]	; 0x138
    8cd4:	e58d4124 	str	r4, [sp, #292]	; 0x124
    8cd8:	e58d7128 	str	r7, [sp, #296]	; 0x128
    8cdc:	e58d412c 	str	r4, [sp, #300]	; 0x12c
    8ce0:	e58d4118 	str	r4, [sp, #280]	; 0x118
    8ce4:	e58d411c 	str	r4, [sp, #284]	; 0x11c
    8ce8:	e58d8120 	str	r8, [sp, #288]	; 0x120
    8cec:	e28d4e1d 	add	r4, sp, #464	; 0x1d0
    8cf0:	e58d7000 	str	r7, [sp]
    8cf4:	e28d3e13 	add	r3, sp, #304	; 0x130
    8cf8:	e893000e 	ldm	r3, {r1, r2, r3}
    8cfc:	e1a00004 	mov	r0, r4
    8d00:	eb00035d 	bl	9a7c <vec3_divide>
    8d04:	e28d6f77 	add	r6, sp, #476	; 0x1dc
    8d08:	e58d7000 	str	r7, [sp]
    8d0c:	e28d3f49 	add	r3, sp, #292	; 0x124
    8d10:	e893000e 	ldm	r3, {r1, r2, r3}
    8d14:	e1a00006 	mov	r0, r6
    8d18:	eb000357 	bl	9a7c <vec3_divide>
    8d1c:	e28d5f7a 	add	r5, sp, #488	; 0x1e8
    8d20:	e896000e 	ldm	r6, {r1, r2, r3}
    8d24:	e1a00005 	mov	r0, r5
    8d28:	eb000362 	bl	9ab8 <vec3_negate>
    8d2c:	e28d6f7d 	add	r6, sp, #500	; 0x1f4
    8d30:	e28d3f46 	add	r3, sp, #280	; 0x118
    8d34:	e8930007 	ldm	r3, {r0, r1, r2}
    8d38:	e88d0007 	stm	sp, {r0, r1, r2}
    8d3c:	e895000e 	ldm	r5, {r1, r2, r3}
    8d40:	e1a00006 	mov	r0, r6
    8d44:	eb0002d9 	bl	98b0 <vec3_subtract>
    8d48:	e28d5c02 	add	r5, sp, #512	; 0x200
    8d4c:	e8960007 	ldm	r6, {r0, r1, r2}
    8d50:	e88d0007 	stm	sp, {r0, r1, r2}
    8d54:	e894000e 	ldm	r4, {r1, r2, r3}
    8d58:	e1a00005 	mov	r0, r5
    8d5c:	eb0002d3 	bl	98b0 <vec3_subtract>
    8d60:	e28d4f43 	add	r4, sp, #268	; 0x10c
    8d64:	e8950007 	ldm	r5, {r0, r1, r2}
    8d68:	e88d0007 	stm	sp, {r0, r1, r2}
    8d6c:	e28d3f4f 	add	r3, sp, #316	; 0x13c
    8d70:	e893000e 	ldm	r3, {r1, r2, r3}
    8d74:	e1a00004 	mov	r0, r4
    8d78:	eb0002cc 	bl	98b0 <vec3_subtract>
    8d7c:	e894000e 	ldm	r4, {r1, r2, r3}
    8d80:	e59f0164 	ldr	r0, [pc, #356]	; 8eec <drawRays+0x3f8>
    8d84:	eb0003c5 	bl	9ca0 <vec3_print>
    8d88:	e3a07000 	mov	r7, #0, 0
    8d8c:	ea000043 	b	8ea0 <drawRays+0x3ac>
    8d90:	e3a03005 	mov	r3, #5, 0
    8d94:	e28d2058 	add	r2, sp, #88, 0	; 0x58
    8d98:	e8920007 	ldm	r2, {r0, r1, r2}
    8d9c:	eb000380 	bl	9ba4 <vec3_to_pixel_value>
    8da0:	e1a02000 	mov	r2, r0
    8da4:	e26710e1 	rsb	r1, r7, #225, 0	; 0xe1
    8da8:	e1a00006 	mov	r0, r6
    8dac:	eb0000b9 	bl	9098 <drawPixel>
    8db0:	e2866001 	add	r6, r6, #1, 0
    8db4:	e3560e19 	cmp	r6, #400	; 0x190
    8db8:	aa000037 	bge	8e9c <drawRays+0x3a8>
    8dbc:	e3a03000 	mov	r3, #0, 0
    8dc0:	e58d3058 	str	r3, [sp, #88]	; 0x58
    8dc4:	e58d305c 	str	r3, [sp, #92]	; 0x5c
    8dc8:	e58d3060 	str	r3, [sp, #96]	; 0x60
    8dcc:	e3a05000 	mov	r5, #0, 0
    8dd0:	e3550004 	cmp	r5, #4, 0
    8dd4:	caffffed 	bgt	8d90 <drawRays+0x29c>
    8dd8:	eb000c56 	bl	bf38 <random_float>
    8ddc:	e1a04000 	mov	r4, r0
    8de0:	e1a00006 	mov	r0, r6
    8de4:	eb0011c9 	bl	d510 <__aeabi_i2f>
    8de8:	e1a01004 	mov	r1, r4
    8dec:	eb001156 	bl	d34c <__addsf3>
    8df0:	e59f10f8 	ldr	r1, [pc, #248]	; 8ef0 <drawRays+0x3fc>
    8df4:	eb001262 	bl	d784 <__aeabi_fdiv>
    8df8:	e1a04000 	mov	r4, r0
    8dfc:	eb000c4d 	bl	bf38 <random_float>
    8e00:	e1a08000 	mov	r8, r0
    8e04:	e1a00007 	mov	r0, r7
    8e08:	eb0011c0 	bl	d510 <__aeabi_i2f>
    8e0c:	e1a01008 	mov	r1, r8
    8e10:	eb00114d 	bl	d34c <__addsf3>
    8e14:	e59f10d8 	ldr	r1, [pc, #216]	; 8ef4 <drawRays+0x400>
    8e18:	eb001259 	bl	d784 <__aeabi_fdiv>
    8e1c:	e58d0050 	str	r0, [sp, #80]	; 0x50
    8e20:	e58d404c 	str	r4, [sp, #76]	; 0x4c
    8e24:	e3a0204c 	mov	r2, #76, 0	; 0x4c
    8e28:	e28d1f5e 	add	r1, sp, #376	; 0x178
    8e2c:	e1a0000d 	mov	r0, sp
    8e30:	eb001618 	bl	e698 <memcpy>
    8e34:	e28d3f5b 	add	r3, sp, #364	; 0x16c
    8e38:	e893000e 	ldm	r3, {r1, r2, r3}
    8e3c:	e28d0064 	add	r0, sp, #100, 0	; 0x64
    8e40:	ebfffdb4 	bl	8518 <get_ray>
    8e44:	e28d4f83 	add	r4, sp, #524	; 0x20c
    8e48:	e3a03032 	mov	r3, #50, 0	; 0x32
    8e4c:	e58d3014 	str	r3, [sp, #20]
    8e50:	e1a0c00d 	mov	ip, sp
    8e54:	e28de068 	add	lr, sp, #104, 0	; 0x68
    8e58:	e8be000f 	ldm	lr!, {r0, r1, r2, r3}
    8e5c:	e8ac000f 	stmia	ip!, {r0, r1, r2, r3}
    8e60:	e59e3000 	ldr	r3, [lr]
    8e64:	e58c3000 	str	r3, [ip]
    8e68:	e59d3064 	ldr	r3, [sp, #100]	; 0x64
    8e6c:	e3a02004 	mov	r2, #4, 0
    8e70:	e28d10bc 	add	r1, sp, #188, 0	; 0xbc
    8e74:	e1a00004 	mov	r0, r4
    8e78:	ebfffe60 	bl	8800 <ray_color_from_world>
    8e7c:	e28dc058 	add	ip, sp, #88, 0	; 0x58
    8e80:	e8940007 	ldm	r4, {r0, r1, r2}
    8e84:	e88d0007 	stm	sp, {r0, r1, r2}
    8e88:	e89c000e 	ldm	ip, {r1, r2, r3}
    8e8c:	e1a0000c 	mov	r0, ip
    8e90:	eb000272 	bl	9860 <vec3_add>
    8e94:	e2855001 	add	r5, r5, #1, 0
    8e98:	eaffffcc 	b	8dd0 <drawRays+0x2dc>
    8e9c:	e2877001 	add	r7, r7, #1, 0
    8ea0:	e35700e0 	cmp	r7, #224, 0	; 0xe0
    8ea4:	d3a06000 	movle	r6, #0, 0
    8ea8:	daffffc1 	ble	8db4 <drawRays+0x2c0>
    8eac:	eafffffe 	b	8eac <drawRays+0x3b8>
    8eb0:	3e4ccccd 	.word	0x3e4ccccd
    8eb4:	3dcccccd 	.word	0x3dcccccd
    8eb8:	3f4ccccd 	.word	0x3f4ccccd
    8ebc:	3f19999a 	.word	0x3f19999a
    8ec0:	bf800000 	.word	0xbf800000
    8ec4:	42c80000 	.word	0x42c80000
    8ec8:	c2c90000 	.word	0xc2c90000
    8ecc:	becccccd 	.word	0xbecccccd
    8ed0:	0000ea14 	.word	0x0000ea14
    8ed4:	3fe38e39 	.word	0x3fe38e39
    8ed8:	41a00000 	.word	0x41a00000
    8edc:	3ff00000 	.word	0x3ff00000
    8ee0:	400c71c7 	.word	0x400c71c7
    8ee4:	0000e9c0 	.word	0x0000e9c0
    8ee8:	40638e39 	.word	0x40638e39
    8eec:	0000e9e4 	.word	0x0000e9e4
    8ef0:	43c78000 	.word	0x43c78000
    8ef4:	43600000 	.word	0x43600000

00008ef8 <draw>:
    8ef8:	e92d4010 	push	{r4, lr}
    8efc:	eb001566 	bl	e49c <uart_init>
    8f00:	eb000002 	bl	8f10 <fb_init>
    8f04:	e8bd8010 	pop	{r4, pc}

00008f08 <notmain>:
    8f08:	e92d4010 	push	{r4, lr}
    8f0c:	ebfffef8 	bl	8af4 <drawRays>

00008f10 <fb_init>:
    8f10:	e92d4010 	push	{r4, lr}
    8f14:	e59f3148 	ldr	r3, [pc, #328]	; 9064 <fb_init+0x154>
    8f18:	e3a0208c 	mov	r2, #140, 0	; 0x8c
    8f1c:	e5832000 	str	r2, [r3]
    8f20:	e3a02000 	mov	r2, #0, 0
    8f24:	e5832004 	str	r2, [r3, #4]
    8f28:	e59f1138 	ldr	r1, [pc, #312]	; 9068 <fb_init+0x158>
    8f2c:	e5831008 	str	r1, [r3, #8]
    8f30:	e3a00008 	mov	r0, #8, 0
    8f34:	e583000c 	str	r0, [r3, #12]
    8f38:	e5832010 	str	r2, [r3, #16]
    8f3c:	e3a0cd1e 	mov	ip, #1920	; 0x780
    8f40:	e583c014 	str	ip, [r3, #20]
    8f44:	e59f1120 	ldr	r1, [pc, #288]	; 906c <fb_init+0x15c>
    8f48:	e5831018 	str	r1, [r3, #24]
    8f4c:	e59fe11c 	ldr	lr, [pc, #284]	; 9070 <fb_init+0x160>
    8f50:	e583e01c 	str	lr, [r3, #28]
    8f54:	e5830020 	str	r0, [r3, #32]
    8f58:	e5830024 	str	r0, [r3, #36]	; 0x24
    8f5c:	e583c028 	str	ip, [r3, #40]	; 0x28
    8f60:	e583102c 	str	r1, [r3, #44]	; 0x2c
    8f64:	e59f1108 	ldr	r1, [pc, #264]	; 9074 <fb_init+0x164>
    8f68:	e5831030 	str	r1, [r3, #48]	; 0x30
    8f6c:	e5830034 	str	r0, [r3, #52]	; 0x34
    8f70:	e5830038 	str	r0, [r3, #56]	; 0x38
    8f74:	e583203c 	str	r2, [r3, #60]	; 0x3c
    8f78:	e5832040 	str	r2, [r3, #64]	; 0x40
    8f7c:	e2411004 	sub	r1, r1, #4, 0
    8f80:	e5831044 	str	r1, [r3, #68]	; 0x44
    8f84:	e3a01004 	mov	r1, #4, 0
    8f88:	e5831048 	str	r1, [r3, #72]	; 0x48
    8f8c:	e583104c 	str	r1, [r3, #76]	; 0x4c
    8f90:	e3a0c020 	mov	ip, #32, 0
    8f94:	e583c050 	str	ip, [r3, #80]	; 0x50
    8f98:	e59fc0d8 	ldr	ip, [pc, #216]	; 9078 <fb_init+0x168>
    8f9c:	e583c054 	str	ip, [r3, #84]	; 0x54
    8fa0:	e5831058 	str	r1, [r3, #88]	; 0x58
    8fa4:	e583105c 	str	r1, [r3, #92]	; 0x5c
    8fa8:	e3a0c001 	mov	ip, #1, 0
    8fac:	e583c060 	str	ip, [r3, #96]	; 0x60
    8fb0:	e28cc701 	add	ip, ip, #262144	; 0x40000
    8fb4:	e583c064 	str	ip, [r3, #100]	; 0x64
    8fb8:	e5830068 	str	r0, [r3, #104]	; 0x68
    8fbc:	e583006c 	str	r0, [r3, #108]	; 0x6c
    8fc0:	e3a0ca01 	mov	ip, #4096	; 0x1000
    8fc4:	e583c070 	str	ip, [r3, #112]	; 0x70
    8fc8:	e5832074 	str	r2, [r3, #116]	; 0x74
    8fcc:	e59fc0a8 	ldr	ip, [pc, #168]	; 907c <fb_init+0x16c>
    8fd0:	e583c078 	str	ip, [r3, #120]	; 0x78
    8fd4:	e583107c 	str	r1, [r3, #124]	; 0x7c
    8fd8:	e5831080 	str	r1, [r3, #128]	; 0x80
    8fdc:	e5832084 	str	r2, [r3, #132]	; 0x84
    8fe0:	e5832088 	str	r2, [r3, #136]	; 0x88
    8fe4:	eb00011c 	bl	945c <mbox_call>
    8fe8:	e3500000 	cmp	r0, #0, 0
    8fec:	08bd8010 	popeq	{r4, pc}
    8ff0:	e59f306c 	ldr	r3, [pc, #108]	; 9064 <fb_init+0x154>
    8ff4:	e5933050 	ldr	r3, [r3, #80]	; 0x50
    8ff8:	e3530020 	cmp	r3, #32, 0
    8ffc:	18bd8010 	popne	{r4, pc}
    9000:	e59f305c 	ldr	r3, [pc, #92]	; 9064 <fb_init+0x154>
    9004:	e5933070 	ldr	r3, [r3, #112]	; 0x70
    9008:	e3530000 	cmp	r3, #0, 0
    900c:	08bd8010 	popeq	{r4, pc}
    9010:	e59f304c 	ldr	r3, [pc, #76]	; 9064 <fb_init+0x154>
    9014:	e5932070 	ldr	r2, [r3, #112]	; 0x70
    9018:	e3c22103 	bic	r2, r2, #-1073741824	; 0xc0000000
    901c:	e5832070 	str	r2, [r3, #112]	; 0x70
    9020:	e5931028 	ldr	r1, [r3, #40]	; 0x28
    9024:	e59f2054 	ldr	r2, [pc, #84]	; 9080 <fb_init+0x170>
    9028:	e5821000 	str	r1, [r2]
    902c:	e593102c 	ldr	r1, [r3, #44]	; 0x2c
    9030:	e59f204c 	ldr	r2, [pc, #76]	; 9084 <fb_init+0x174>
    9034:	e5821000 	str	r1, [r2]
    9038:	e5931084 	ldr	r1, [r3, #132]	; 0x84
    903c:	e59f2044 	ldr	r2, [pc, #68]	; 9088 <fb_init+0x178>
    9040:	e5821000 	str	r1, [r2]
    9044:	e5931060 	ldr	r1, [r3, #96]	; 0x60
    9048:	e59f203c 	ldr	r2, [pc, #60]	; 908c <fb_init+0x17c>
    904c:	e5821000 	str	r1, [r2]
    9050:	e5931070 	ldr	r1, [r3, #112]	; 0x70
    9054:	e59f2034 	ldr	r2, [pc, #52]	; 9090 <fb_init+0x180>
    9058:	e5821000 	str	r1, [r2]
    905c:	e5933074 	ldr	r3, [r3, #116]	; 0x74
    9060:	e8bd8010 	pop	{r4, pc}
    9064:	0000f230 	.word	0x0000f230
    9068:	00048003 	.word	0x00048003
    906c:	00000438 	.word	0x00000438
    9070:	00048004 	.word	0x00048004
    9074:	00048009 	.word	0x00048009
    9078:	00048006 	.word	0x00048006
    907c:	00040008 	.word	0x00040008
    9080:	0000f228 	.word	0x0000f228
    9084:	0000f224 	.word	0x0000f224
    9088:	0000f220 	.word	0x0000f220
    908c:	0000f218 	.word	0x0000f218
    9090:	0000f21c 	.word	0x0000f21c

00009094 <drawImage>:
    9094:	e12fff1e 	bx	lr

00009098 <drawPixel>:
    9098:	e59f3018 	ldr	r3, [pc, #24]	; 90b8 <drawPixel+0x20>
    909c:	e5933000 	ldr	r3, [r3]
    90a0:	e1a00100 	lsl	r0, r0, #2
    90a4:	e0210193 	mla	r1, r3, r1, r0
    90a8:	e59f300c 	ldr	r3, [pc, #12]	; 90bc <drawPixel+0x24>
    90ac:	e5933000 	ldr	r3, [r3]
    90b0:	e7832001 	str	r2, [r3, r1]
    90b4:	e12fff1e 	bx	lr
    90b8:	0000f220 	.word	0x0000f220
    90bc:	0000f21c 	.word	0x0000f21c

000090c0 <drawPixelArray>:
    90c0:	e59fc010 	ldr	ip, [pc, #16]	; 90d8 <drawPixelArray+0x18>
    90c4:	e59cc000 	ldr	ip, [ip]
    90c8:	e1a01101 	lsl	r1, r1, #2
    90cc:	e022129c 	mla	r2, ip, r2, r1
    90d0:	e7803002 	str	r3, [r0, r2]
    90d4:	e12fff1e 	bx	lr
    90d8:	0000f220 	.word	0x0000f220

000090dc <drawRect>:
    90dc:	e92d4ff8 	push	{r3, r4, r5, r6, r7, r8, r9, sl, fp, lr}
    90e0:	e1a07000 	mov	r7, r0
    90e4:	e1a0a001 	mov	sl, r1
    90e8:	e1a06002 	mov	r6, r2
    90ec:	e1a08003 	mov	r8, r3
    90f0:	e5dd9028 	ldrb	r9, [sp, #40]	; 0x28
    90f4:	e59db02c 	ldr	fp, [sp, #44]	; 0x2c
    90f8:	e1a05001 	mov	r5, r1
    90fc:	ea000014 	b	9154 <drawRect+0x78>
    9100:	e1a02009 	mov	r2, r9
    9104:	e1a01005 	mov	r1, r5
    9108:	e1a00004 	mov	r0, r4
    910c:	ebffffe1 	bl	9098 <drawPixel>
    9110:	e2844001 	add	r4, r4, #1, 0
    9114:	e1540006 	cmp	r4, r6
    9118:	ca00000c 	bgt	9150 <drawRect+0x74>
    911c:	e1540006 	cmp	r4, r6
    9120:	11540007 	cmpne	r4, r7
    9124:	0afffff5 	beq	9100 <drawRect+0x24>
    9128:	e1550008 	cmp	r5, r8
    912c:	1155000a 	cmpne	r5, sl
    9130:	0afffff2 	beq	9100 <drawRect+0x24>
    9134:	e35b0000 	cmp	fp, #0, 0
    9138:	0afffff4 	beq	9110 <drawRect+0x34>
    913c:	e1a02229 	lsr	r2, r9, #4
    9140:	e1a01005 	mov	r1, r5
    9144:	e1a00004 	mov	r0, r4
    9148:	ebffffd2 	bl	9098 <drawPixel>
    914c:	eaffffef 	b	9110 <drawRect+0x34>
    9150:	e2855001 	add	r5, r5, #1, 0
    9154:	e1550008 	cmp	r5, r8
    9158:	c8bd8ff8 	popgt	{r3, r4, r5, r6, r7, r8, r9, sl, fp, pc}
    915c:	e1a04007 	mov	r4, r7
    9160:	eaffffeb 	b	9114 <drawRect+0x38>

00009164 <drawLine>:
    9164:	e92d47f0 	push	{r4, r5, r6, r7, r8, r9, sl, lr}
    9168:	e1a05000 	mov	r5, r0
    916c:	e1a06001 	mov	r6, r1
    9170:	e1a07002 	mov	r7, r2
    9174:	e5dd9020 	ldrb	r9, [sp, #32]
    9178:	e042a000 	sub	sl, r2, r0
    917c:	e0434001 	sub	r4, r3, r1
    9180:	e1a08084 	lsl	r8, r4, #1
    9184:	e06a4084 	rsb	r4, sl, r4, lsl #1
    9188:	ea000005 	b	91a4 <drawLine+0x40>
    918c:	e1a02009 	mov	r2, r9
    9190:	e1a01006 	mov	r1, r6
    9194:	e1a00005 	mov	r0, r5
    9198:	ebffffbe 	bl	9098 <drawPixel>
    919c:	e0844008 	add	r4, r4, r8
    91a0:	e2855001 	add	r5, r5, #1, 0
    91a4:	e1550007 	cmp	r5, r7
    91a8:	a8bd87f0 	popge	{r4, r5, r6, r7, r8, r9, sl, pc}
    91ac:	e3540000 	cmp	r4, #0, 0
    91b0:	bafffff5 	blt	918c <drawLine+0x28>
    91b4:	e1a02009 	mov	r2, r9
    91b8:	e1a01006 	mov	r1, r6
    91bc:	e1a00005 	mov	r0, r5
    91c0:	ebffffb4 	bl	9098 <drawPixel>
    91c4:	e2866001 	add	r6, r6, #1, 0
    91c8:	e0884004 	add	r4, r8, r4
    91cc:	e044408a 	sub	r4, r4, sl, lsl #1
    91d0:	eafffff2 	b	91a0 <drawLine+0x3c>

000091d4 <drawCircle>:
    91d4:	e92d4ff0 	push	{r4, r5, r6, r7, r8, r9, sl, fp, lr}
    91d8:	e24dd01c 	sub	sp, sp, #28, 0
    91dc:	e1a08000 	mov	r8, r0
    91e0:	e1a05002 	mov	r5, r2
    91e4:	e1a04003 	mov	r4, r3
    91e8:	e3a03000 	mov	r3, #0, 0
    91ec:	e58d300c 	str	r3, [sp, #12]
    91f0:	e1a06003 	mov	r6, r3
    91f4:	e1a0b001 	mov	fp, r1
    91f8:	e1550006 	cmp	r5, r6
    91fc:	ba00005c 	blt	9374 <drawCircle+0x1a0>
    9200:	e59d3040 	ldr	r3, [sp, #64]	; 0x40
    9204:	e3530000 	cmp	r3, #0, 0
    9208:	1a000035 	bne	92e4 <drawCircle+0x110>
    920c:	e0483006 	sub	r3, r8, r6
    9210:	e085900b 	add	r9, r5, fp
    9214:	e1a02004 	mov	r2, r4
    9218:	e1a01009 	mov	r1, r9
    921c:	e58d3010 	str	r3, [sp, #16]
    9220:	e1a00003 	mov	r0, r3
    9224:	ebffff9b 	bl	9098 <drawPixel>
    9228:	e0867008 	add	r7, r6, r8
    922c:	e1a02004 	mov	r2, r4
    9230:	e1a01009 	mov	r1, r9
    9234:	e1a00007 	mov	r0, r7
    9238:	ebffff96 	bl	9098 <drawPixel>
    923c:	e0483005 	sub	r3, r8, r5
    9240:	e086a00b 	add	sl, r6, fp
    9244:	e1a02004 	mov	r2, r4
    9248:	e1a0100a 	mov	r1, sl
    924c:	e58d3014 	str	r3, [sp, #20]
    9250:	e1a00003 	mov	r0, r3
    9254:	ebffff8f 	bl	9098 <drawPixel>
    9258:	e0859008 	add	r9, r5, r8
    925c:	e1a02004 	mov	r2, r4
    9260:	e1a0100a 	mov	r1, sl
    9264:	e1a00009 	mov	r0, r9
    9268:	ebffff8a 	bl	9098 <drawPixel>
    926c:	e04ba006 	sub	sl, fp, r6
    9270:	e1a02004 	mov	r2, r4
    9274:	e1a0100a 	mov	r1, sl
    9278:	e59d0014 	ldr	r0, [sp, #20]
    927c:	ebffff85 	bl	9098 <drawPixel>
    9280:	e1a02004 	mov	r2, r4
    9284:	e1a0100a 	mov	r1, sl
    9288:	e1a00009 	mov	r0, r9
    928c:	ebffff81 	bl	9098 <drawPixel>
    9290:	e04b9005 	sub	r9, fp, r5
    9294:	e1a02004 	mov	r2, r4
    9298:	e1a01009 	mov	r1, r9
    929c:	e59d0010 	ldr	r0, [sp, #16]
    92a0:	ebffff7c 	bl	9098 <drawPixel>
    92a4:	e1a02004 	mov	r2, r4
    92a8:	e1a01009 	mov	r1, r9
    92ac:	e1a00007 	mov	r0, r7
    92b0:	ebffff78 	bl	9098 <drawPixel>
    92b4:	e59d200c 	ldr	r2, [sp, #12]
    92b8:	e3520000 	cmp	r2, #0, 0
    92bc:	da000026 	ble	935c <drawCircle+0x188>
    92c0:	e59d200c 	ldr	r2, [sp, #12]
    92c4:	e3520000 	cmp	r2, #0, 0
    92c8:	daffffca 	ble	91f8 <drawCircle+0x24>
    92cc:	e2455001 	sub	r5, r5, #1, 0
    92d0:	e1a03085 	lsl	r3, r5, #1
    92d4:	e2833001 	add	r3, r3, #1, 0
    92d8:	e0423003 	sub	r3, r2, r3
    92dc:	e58d300c 	str	r3, [sp, #12]
    92e0:	eaffffc4 	b	91f8 <drawCircle+0x24>
    92e4:	e048a006 	sub	sl, r8, r6
    92e8:	e085100b 	add	r1, r5, fp
    92ec:	e0869008 	add	r9, r6, r8
    92f0:	e1a07224 	lsr	r7, r4, #4
    92f4:	e58d7000 	str	r7, [sp]
    92f8:	e1a03001 	mov	r3, r1
    92fc:	e1a02009 	mov	r2, r9
    9300:	e1a0000a 	mov	r0, sl
    9304:	ebffff96 	bl	9164 <drawLine>
    9308:	e0480005 	sub	r0, r8, r5
    930c:	e086100b 	add	r1, r6, fp
    9310:	e0852008 	add	r2, r5, r8
    9314:	e58d7000 	str	r7, [sp]
    9318:	e1a03001 	mov	r3, r1
    931c:	e58d2014 	str	r2, [sp, #20]
    9320:	e58d0010 	str	r0, [sp, #16]
    9324:	ebffff8e 	bl	9164 <drawLine>
    9328:	e04b1006 	sub	r1, fp, r6
    932c:	e58d7000 	str	r7, [sp]
    9330:	e1a03001 	mov	r3, r1
    9334:	e59d2014 	ldr	r2, [sp, #20]
    9338:	e59d0010 	ldr	r0, [sp, #16]
    933c:	ebffff88 	bl	9164 <drawLine>
    9340:	e04b1005 	sub	r1, fp, r5
    9344:	e58d7000 	str	r7, [sp]
    9348:	e1a03001 	mov	r3, r1
    934c:	e1a02009 	mov	r2, r9
    9350:	e1a0000a 	mov	r0, sl
    9354:	ebffff82 	bl	9164 <drawLine>
    9358:	eaffffab 	b	920c <drawCircle+0x38>
    935c:	e2866001 	add	r6, r6, #1, 0
    9360:	e1a03086 	lsl	r3, r6, #1
    9364:	e2833001 	add	r3, r3, #1, 0
    9368:	e0823003 	add	r3, r2, r3
    936c:	e58d300c 	str	r3, [sp, #12]
    9370:	eaffffd2 	b	92c0 <drawCircle+0xec>
    9374:	e28dd01c 	add	sp, sp, #28, 0
    9378:	e8bd8ff0 	pop	{r4, r5, r6, r7, r8, r9, sl, fp, pc}

0000937c <drawChar>:
    937c:	e92d47f0 	push	{r4, r5, r6, r7, r8, r9, sl, lr}
    9380:	e1a07001 	mov	r7, r1
    9384:	e1a08002 	mov	r8, r2
    9388:	e1a09003 	mov	r9, r3
    938c:	e35000df 	cmp	r0, #223, 0	; 0xdf
    9390:	8a000003 	bhi	93a4 <drawChar+0x28>
    9394:	e59f605c 	ldr	r6, [pc, #92]	; 93f8 <drawChar+0x7c>
    9398:	e0866180 	add	r6, r6, r0, lsl #3
    939c:	e3a05000 	mov	r5, #0, 0
    93a0:	ea000010 	b	93e8 <drawChar+0x6c>
    93a4:	e59f604c 	ldr	r6, [pc, #76]	; 93f8 <drawChar+0x7c>
    93a8:	eafffffb 	b	939c <drawChar+0x20>
    93ac:	e1a02229 	lsr	r2, r9, #4
    93b0:	e0851008 	add	r1, r5, r8
    93b4:	e0840007 	add	r0, r4, r7
    93b8:	ebffff36 	bl	9098 <drawPixel>
    93bc:	e2844001 	add	r4, r4, #1, 0
    93c0:	e3540007 	cmp	r4, #7, 0
    93c4:	ca000005 	bgt	93e0 <drawChar+0x64>
    93c8:	e5d60000 	ldrb	r0, [r6]
    93cc:	e3a03001 	mov	r3, #1, 0
    93d0:	e0103413 	ands	r3, r0, r3, lsl r4
    93d4:	0afffff4 	beq	93ac <drawChar+0x30>
    93d8:	e209200f 	and	r2, r9, #15, 0
    93dc:	eafffff3 	b	93b0 <drawChar+0x34>
    93e0:	e2866001 	add	r6, r6, #1, 0
    93e4:	e2855001 	add	r5, r5, #1, 0
    93e8:	e3550007 	cmp	r5, #7, 0
    93ec:	c8bd87f0 	popgt	{r4, r5, r6, r7, r8, r9, sl, pc}
    93f0:	e3a04000 	mov	r4, #0, 0
    93f4:	eafffff1 	b	93c0 <drawChar+0x44>
    93f8:	0000eac0 	.word	0x0000eac0

000093fc <drawString>:
    93fc:	e92d41f0 	push	{r4, r5, r6, r7, r8, lr}
    9400:	e1a05000 	mov	r5, r0
    9404:	e1a06001 	mov	r6, r1
    9408:	e1a04002 	mov	r4, r2
    940c:	e1a07003 	mov	r7, r3
    9410:	ea000007 	b	9434 <drawString+0x38>
    9414:	e1a03007 	mov	r3, r7
    9418:	e1a02006 	mov	r2, r6
    941c:	e1a01005 	mov	r1, r5
    9420:	ebffffd5 	bl	937c <drawChar>
    9424:	e2855008 	add	r5, r5, #8, 0
    9428:	ea000000 	b	9430 <drawString+0x34>
    942c:	e3a05000 	mov	r5, #0, 0
    9430:	e2844001 	add	r4, r4, #1, 0
    9434:	e5d40000 	ldrb	r0, [r4]
    9438:	e3500000 	cmp	r0, #0, 0
    943c:	08bd81f0 	popeq	{r4, r5, r6, r7, r8, pc}
    9440:	e350000d 	cmp	r0, #13, 0
    9444:	0afffff8 	beq	942c <drawString+0x30>
    9448:	e350000a 	cmp	r0, #10, 0
    944c:	1afffff0 	bne	9414 <drawString+0x18>
    9450:	e2866008 	add	r6, r6, #8, 0
    9454:	e3a05000 	mov	r5, #0, 0
    9458:	eafffff4 	b	9430 <drawString+0x34>

0000945c <mbox_call>:
    945c:	e92d4010 	push	{r4, lr}
    9460:	e200400f 	and	r4, r0, #15, 0
    9464:	e59f3058 	ldr	r3, [pc, #88]	; 94c4 <mbox_call+0x68>
    9468:	e3c3300f 	bic	r3, r3, #15, 0
    946c:	e1844003 	orr	r4, r4, r3
    9470:	e59f0050 	ldr	r0, [pc, #80]	; 94c8 <mbox_call+0x6c>
    9474:	eb000018 	bl	94dc <mmio_read>
    9478:	e3500000 	cmp	r0, #0, 0
    947c:	bafffffb 	blt	9470 <mbox_call+0x14>
    9480:	e1a01004 	mov	r1, r4
    9484:	e59f0040 	ldr	r0, [pc, #64]	; 94cc <mbox_call+0x70>
    9488:	eb000011 	bl	94d4 <mmio_write>
    948c:	e59f0034 	ldr	r0, [pc, #52]	; 94c8 <mbox_call+0x6c>
    9490:	eb000011 	bl	94dc <mmio_read>
    9494:	e3100101 	tst	r0, #1073741824	; 0x40000000
    9498:	1afffffb 	bne	948c <mbox_call+0x30>
    949c:	e59f002c 	ldr	r0, [pc, #44]	; 94d0 <mbox_call+0x74>
    94a0:	eb00000d 	bl	94dc <mmio_read>
    94a4:	e1500004 	cmp	r0, r4
    94a8:	1afffff7 	bne	948c <mbox_call+0x30>
    94ac:	e59f3010 	ldr	r3, [pc, #16]	; 94c4 <mbox_call+0x68>
    94b0:	e5930004 	ldr	r0, [r3, #4]
    94b4:	e3500102 	cmp	r0, #-2147483648	; 0x80000000
    94b8:	13a00000 	movne	r0, #0, 0
    94bc:	03a00001 	moveq	r0, #1, 0
    94c0:	e8bd8010 	pop	{r4, pc}
    94c4:	0000f230 	.word	0x0000f230
    94c8:	2000b898 	.word	0x2000b898
    94cc:	2000b8a0 	.word	0x2000b8a0
    94d0:	2000b880 	.word	0x2000b880

000094d4 <mmio_write>:
    94d4:	e5801000 	str	r1, [r0]
    94d8:	e12fff1e 	bx	lr

000094dc <mmio_read>:
    94dc:	e5900000 	ldr	r0, [r0]
    94e0:	e12fff1e 	bx	lr

000094e4 <gpio_call>:
    94e4:	e92d47f0 	push	{r4, r5, r6, r7, r8, r9, sl, lr}
    94e8:	e1a05003 	mov	r5, r3
    94ec:	e3a0c001 	mov	ip, #1, 0
    94f0:	e1a0c31c 	lsl	ip, ip, r3
    94f4:	e59d3020 	ldr	r3, [sp, #32]
    94f8:	e1500003 	cmp	r0, r3
    94fc:	8a00001b 	bhi	9570 <gpio_call+0x8c>
    9500:	e1a06000 	mov	r6, r0
    9504:	e1a07001 	mov	r7, r1
    9508:	e1a08002 	mov	r8, r2
    950c:	e24c4001 	sub	r4, ip, #1, 0
    9510:	e1540001 	cmp	r4, r1
    9514:	2a000001 	bcs	9520 <gpio_call+0x3c>
    9518:	e3a00000 	mov	r0, #0, 0
    951c:	e8bd87f0 	pop	{r4, r5, r6, r7, r8, r9, sl, pc}
    9520:	e1a01005 	mov	r1, r5
    9524:	e3a00020 	mov	r0, #32, 0
    9528:	eb000c6b 	bl	c6dc <__udivsi3>
    952c:	e1a09000 	mov	r9, r0
    9530:	e1a01000 	mov	r1, r0
    9534:	e1a00006 	mov	r0, r6
    9538:	eb000c67 	bl	c6dc <__udivsi3>
    953c:	e0888100 	add	r8, r8, r0, lsl #2
    9540:	e1a01009 	mov	r1, r9
    9544:	e1a00006 	mov	r0, r6
    9548:	eb000ca0 	bl	c7d0 <__aeabi_uidivmod>
    954c:	e0050195 	mul	r5, r5, r1
    9550:	e1a00008 	mov	r0, r8
    9554:	ebffffe0 	bl	94dc <mmio_read>
    9558:	e1c01514 	bic	r1, r0, r4, lsl r5
    955c:	e1811517 	orr	r1, r1, r7, lsl r5
    9560:	e1a00008 	mov	r0, r8
    9564:	ebffffda 	bl	94d4 <mmio_write>
    9568:	e3a00001 	mov	r0, #1, 0
    956c:	e8bd87f0 	pop	{r4, r5, r6, r7, r8, r9, sl, pc}
    9570:	e3a00000 	mov	r0, #0, 0
    9574:	e8bd87f0 	pop	{r4, r5, r6, r7, r8, r9, sl, pc}

00009578 <gpio_set>:
    9578:	e52de004 	push	{lr}		; (str lr, [sp, #-4]!)
    957c:	e24dd00c 	sub	sp, sp, #12, 0
    9580:	e3a03035 	mov	r3, #53, 0	; 0x35
    9584:	e58d3000 	str	r3, [sp]
    9588:	e3a03001 	mov	r3, #1, 0
    958c:	e59f2008 	ldr	r2, [pc, #8]	; 959c <gpio_set+0x24>
    9590:	ebffffd3 	bl	94e4 <gpio_call>
    9594:	e28dd00c 	add	sp, sp, #12, 0
    9598:	e49df004 	pop	{pc}		; (ldr pc, [sp], #4)
    959c:	2020001c 	.word	0x2020001c

000095a0 <gpio_clear>:
    95a0:	e52de004 	push	{lr}		; (str lr, [sp, #-4]!)
    95a4:	e24dd00c 	sub	sp, sp, #12, 0
    95a8:	e3a03035 	mov	r3, #53, 0	; 0x35
    95ac:	e58d3000 	str	r3, [sp]
    95b0:	e3a03001 	mov	r3, #1, 0
    95b4:	e59f2008 	ldr	r2, [pc, #8]	; 95c4 <gpio_clear+0x24>
    95b8:	ebffffc9 	bl	94e4 <gpio_call>
    95bc:	e28dd00c 	add	sp, sp, #12, 0
    95c0:	e49df004 	pop	{pc}		; (ldr pc, [sp], #4)
    95c4:	20200028 	.word	0x20200028

000095c8 <gpio_pull>:
    95c8:	e52de004 	push	{lr}		; (str lr, [sp, #-4]!)
    95cc:	e24dd00c 	sub	sp, sp, #12, 0
    95d0:	e3a03035 	mov	r3, #53, 0	; 0x35
    95d4:	e58d3000 	str	r3, [sp]
    95d8:	e3a03002 	mov	r3, #2, 0
    95dc:	e59f2008 	ldr	r2, [pc, #8]	; 95ec <gpio_pull+0x24>
    95e0:	ebffffbf 	bl	94e4 <gpio_call>
    95e4:	e28dd00c 	add	sp, sp, #12, 0
    95e8:	e49df004 	pop	{pc}		; (ldr pc, [sp], #4)
    95ec:	202000e4 	.word	0x202000e4

000095f0 <gpio_function>:
    95f0:	e52de004 	push	{lr}		; (str lr, [sp, #-4]!)
    95f4:	e24dd00c 	sub	sp, sp, #12, 0
    95f8:	e3a03035 	mov	r3, #53, 0	; 0x35
    95fc:	e58d3000 	str	r3, [sp]
    9600:	e3a03003 	mov	r3, #3, 0
    9604:	e59f2008 	ldr	r2, [pc, #8]	; 9614 <gpio_function+0x24>
    9608:	ebffffb5 	bl	94e4 <gpio_call>
    960c:	e28dd00c 	add	sp, sp, #12, 0
    9610:	e49df004 	pop	{pc}		; (ldr pc, [sp], #4)
    9614:	20200000 	.word	0x20200000

00009618 <gpio_useAsAlt3>:
    9618:	e92d4010 	push	{r4, lr}
    961c:	e1a04000 	mov	r4, r0
    9620:	e3a01000 	mov	r1, #0, 0
    9624:	ebffffe7 	bl	95c8 <gpio_pull>
    9628:	e3a01007 	mov	r1, #7, 0
    962c:	e1a00004 	mov	r0, r4
    9630:	ebffffee 	bl	95f0 <gpio_function>
    9634:	e8bd8010 	pop	{r4, pc}

00009638 <gpio_useAsAlt5>:
    9638:	e92d4010 	push	{r4, lr}
    963c:	e1a04000 	mov	r4, r0
    9640:	e3a01000 	mov	r1, #0, 0
    9644:	ebffffdf 	bl	95c8 <gpio_pull>
    9648:	e3a01002 	mov	r1, #2, 0
    964c:	e1a00004 	mov	r0, r4
    9650:	ebffffe6 	bl	95f0 <gpio_function>
    9654:	e8bd8010 	pop	{r4, pc}

00009658 <gpio_initOutputPinWithPullNone>:
    9658:	e92d4010 	push	{r4, lr}
    965c:	e1a04000 	mov	r4, r0
    9660:	e3a01000 	mov	r1, #0, 0
    9664:	ebffffd7 	bl	95c8 <gpio_pull>
    9668:	e3a01001 	mov	r1, #1, 0
    966c:	e1a00004 	mov	r0, r4
    9670:	ebffffde 	bl	95f0 <gpio_function>
    9674:	e8bd8010 	pop	{r4, pc}

00009678 <gpio_setPinOutputBool>:
    9678:	e92d4010 	push	{r4, lr}
    967c:	e3510000 	cmp	r1, #0, 0
    9680:	0a000002 	beq	9690 <gpio_setPinOutputBool+0x18>
    9684:	e3a01001 	mov	r1, #1, 0
    9688:	ebffffba 	bl	9578 <gpio_set>
    968c:	e8bd8010 	pop	{r4, pc}
    9690:	e3a01001 	mov	r1, #1, 0
    9694:	ebffffc1 	bl	95a0 <gpio_clear>
    9698:	e8bd8010 	pop	{r4, pc}

0000969c <uart_isOutputQueueEmpty>:
    969c:	e59f3014 	ldr	r3, [pc, #20]	; 96b8 <uart_isOutputQueueEmpty+0x1c>
    96a0:	e5930000 	ldr	r0, [r3]
    96a4:	e5933004 	ldr	r3, [r3, #4]
    96a8:	e1500003 	cmp	r0, r3
    96ac:	13a00000 	movne	r0, #0, 0
    96b0:	03a00001 	moveq	r0, #1, 0
    96b4:	e12fff1e 	bx	lr
    96b8:	0000f210 	.word	0x0000f210

000096bc <uart_isReadByteReady>:
    96bc:	e92d4010 	push	{r4, lr}
    96c0:	e59f0008 	ldr	r0, [pc, #8]	; 96d0 <uart_isReadByteReady+0x14>
    96c4:	ebffff84 	bl	94dc <mmio_read>
    96c8:	e2000001 	and	r0, r0, #1, 0
    96cc:	e8bd8010 	pop	{r4, pc}
    96d0:	20215054 	.word	0x20215054

000096d4 <uart_isWriteByteReady>:
    96d4:	e92d4010 	push	{r4, lr}
    96d8:	e59f0008 	ldr	r0, [pc, #8]	; 96e8 <uart_isWriteByteReady+0x14>
    96dc:	ebffff7e 	bl	94dc <mmio_read>
    96e0:	e2000020 	and	r0, r0, #32, 0
    96e4:	e8bd8010 	pop	{r4, pc}
    96e8:	20215054 	.word	0x20215054

000096ec <uart_readByte>:
    96ec:	e92d4010 	push	{r4, lr}
    96f0:	ebfffff1 	bl	96bc <uart_isReadByteReady>
    96f4:	e3500000 	cmp	r0, #0, 0
    96f8:	0afffffc 	beq	96f0 <uart_readByte+0x4>
    96fc:	e59f0008 	ldr	r0, [pc, #8]	; 970c <uart_readByte+0x20>
    9700:	ebffff75 	bl	94dc <mmio_read>
    9704:	e6ef0070 	uxtb	r0, r0
    9708:	e8bd8010 	pop	{r4, pc}
    970c:	20215040 	.word	0x20215040

00009710 <uart_writeByteBlockingActual>:
    9710:	e92d4010 	push	{r4, lr}
    9714:	e1a04000 	mov	r4, r0
    9718:	ebffffed 	bl	96d4 <uart_isWriteByteReady>
    971c:	e3500000 	cmp	r0, #0, 0
    9720:	0afffffc 	beq	9718 <uart_writeByteBlockingActual+0x8>
    9724:	e1a01004 	mov	r1, r4
    9728:	e59f0004 	ldr	r0, [pc, #4]	; 9734 <uart_writeByteBlockingActual+0x24>
    972c:	ebffff68 	bl	94d4 <mmio_write>
    9730:	e8bd8010 	pop	{r4, pc}
    9734:	20215040 	.word	0x20215040

00009738 <uart_loadOutputFifo>:
    9738:	e92d4010 	push	{r4, lr}
    973c:	ebffffd6 	bl	969c <uart_isOutputQueueEmpty>
    9740:	e3500000 	cmp	r0, #0, 0
    9744:	18bd8010 	popne	{r4, pc}
    9748:	ebffffe1 	bl	96d4 <uart_isWriteByteReady>
    974c:	e3500000 	cmp	r0, #0, 0
    9750:	08bd8010 	popeq	{r4, pc}
    9754:	e59f4024 	ldr	r4, [pc, #36]	; 9780 <uart_loadOutputFifo+0x48>
    9758:	e5943000 	ldr	r3, [r4]
    975c:	e59f2020 	ldr	r2, [pc, #32]	; 9784 <uart_loadOutputFifo+0x4c>
    9760:	e7d20003 	ldrb	r0, [r2, r3]
    9764:	ebffffe9 	bl	9710 <uart_writeByteBlockingActual>
    9768:	e5943000 	ldr	r3, [r4]
    976c:	e2833001 	add	r3, r3, #1, 0
    9770:	e1a03903 	lsl	r3, r3, #18
    9774:	e1a03923 	lsr	r3, r3, #18
    9778:	e5843000 	str	r3, [r4]
    977c:	eaffffee 	b	973c <uart_loadOutputFifo+0x4>
    9780:	0000f210 	.word	0x0000f210
    9784:	0000f2c0 	.word	0x0000f2c0

00009788 <uart_writeByteBlocking>:
    9788:	e92d4070 	push	{r4, r5, r6, lr}
    978c:	e1a05000 	mov	r5, r0
    9790:	e59f303c 	ldr	r3, [pc, #60]	; 97d4 <uart_writeByteBlocking+0x4c>
    9794:	e5934004 	ldr	r4, [r3, #4]
    9798:	e2844001 	add	r4, r4, #1, 0
    979c:	e1a04904 	lsl	r4, r4, #18
    97a0:	e1a04924 	lsr	r4, r4, #18
    97a4:	e59f3028 	ldr	r3, [pc, #40]	; 97d4 <uart_writeByteBlocking+0x4c>
    97a8:	e5933000 	ldr	r3, [r3]
    97ac:	e1530004 	cmp	r3, r4
    97b0:	1a000001 	bne	97bc <uart_writeByteBlocking+0x34>
    97b4:	ebffffdf 	bl	9738 <uart_loadOutputFifo>
    97b8:	eafffff9 	b	97a4 <uart_writeByteBlocking+0x1c>
    97bc:	e59f3010 	ldr	r3, [pc, #16]	; 97d4 <uart_writeByteBlocking+0x4c>
    97c0:	e5932004 	ldr	r2, [r3, #4]
    97c4:	e59f100c 	ldr	r1, [pc, #12]	; 97d8 <uart_writeByteBlocking+0x50>
    97c8:	e7c15002 	strb	r5, [r1, r2]
    97cc:	e5834004 	str	r4, [r3, #4]
    97d0:	e8bd8070 	pop	{r4, r5, r6, pc}
    97d4:	0000f210 	.word	0x0000f210
    97d8:	0000f2c0 	.word	0x0000f2c0

000097dc <uart_writeText>:
    97dc:	e92d4010 	push	{r4, lr}
    97e0:	e1a04000 	mov	r4, r0
    97e4:	ea000003 	b	97f8 <uart_writeText+0x1c>
    97e8:	e3a0000d 	mov	r0, #13, 0
    97ec:	ebffffe5 	bl	9788 <uart_writeByteBlocking>
    97f0:	e4d40001 	ldrb	r0, [r4], #1
    97f4:	ebffffe3 	bl	9788 <uart_writeByteBlocking>
    97f8:	e5d43000 	ldrb	r3, [r4]
    97fc:	e3530000 	cmp	r3, #0, 0
    9800:	08bd8010 	popeq	{r4, pc}
    9804:	e353000a 	cmp	r3, #10, 0
    9808:	1afffff8 	bne	97f0 <uart_writeText+0x14>
    980c:	eafffff5 	b	97e8 <uart_writeText+0xc>

00009810 <uart_drainOutputQueue>:
    9810:	e92d4010 	push	{r4, lr}
    9814:	ebffffa0 	bl	969c <uart_isOutputQueueEmpty>
    9818:	e3500000 	cmp	r0, #0, 0
    981c:	18bd8010 	popne	{r4, pc}
    9820:	ebffffc4 	bl	9738 <uart_loadOutputFifo>
    9824:	eafffffa 	b	9814 <uart_drainOutputQueue+0x4>

00009828 <uart_update>:
    9828:	e92d4010 	push	{r4, lr}
    982c:	ebffffc1 	bl	9738 <uart_loadOutputFifo>
    9830:	ebffffa1 	bl	96bc <uart_isReadByteReady>
    9834:	e3500000 	cmp	r0, #0, 0
    9838:	08bd8010 	popeq	{r4, pc}
    983c:	ebffffaa 	bl	96ec <uart_readByte>
    9840:	e350000d 	cmp	r0, #13, 0
    9844:	0a000001 	beq	9850 <uart_update+0x28>
    9848:	ebffffce 	bl	9788 <uart_writeByteBlocking>
    984c:	e8bd8010 	pop	{r4, pc}
    9850:	e59f0004 	ldr	r0, [pc, #4]	; 985c <uart_update+0x34>
    9854:	ebffffe0 	bl	97dc <uart_writeText>
    9858:	e8bd8010 	pop	{r4, pc}
    985c:	0000ea30 	.word	0x0000ea30

00009860 <vec3_add>:
    9860:	e92d4010 	push	{r4, lr}
    9864:	e24dd010 	sub	sp, sp, #16, 0
    9868:	e1a04000 	mov	r4, r0
    986c:	e28d0010 	add	r0, sp, #16, 0
    9870:	e900000e 	stmdb	r0, {r1, r2, r3}
    9874:	e59d1018 	ldr	r1, [sp, #24]
    9878:	e59d0004 	ldr	r0, [sp, #4]
    987c:	eb000eb2 	bl	d34c <__addsf3>
    9880:	e5840000 	str	r0, [r4]
    9884:	e59d101c 	ldr	r1, [sp, #28]
    9888:	e59d0008 	ldr	r0, [sp, #8]
    988c:	eb000eae 	bl	d34c <__addsf3>
    9890:	e5840004 	str	r0, [r4, #4]
    9894:	e59d1020 	ldr	r1, [sp, #32]
    9898:	e59d000c 	ldr	r0, [sp, #12]
    989c:	eb000eaa 	bl	d34c <__addsf3>
    98a0:	e5840008 	str	r0, [r4, #8]
    98a4:	e1a00004 	mov	r0, r4
    98a8:	e28dd010 	add	sp, sp, #16, 0
    98ac:	e8bd8010 	pop	{r4, pc}

000098b0 <vec3_subtract>:
    98b0:	e92d4010 	push	{r4, lr}
    98b4:	e24dd010 	sub	sp, sp, #16, 0
    98b8:	e1a04000 	mov	r4, r0
    98bc:	e28d0010 	add	r0, sp, #16, 0
    98c0:	e900000e 	stmdb	r0, {r1, r2, r3}
    98c4:	e59d1018 	ldr	r1, [sp, #24]
    98c8:	e59d0004 	ldr	r0, [sp, #4]
    98cc:	eb000e9d 	bl	d348 <__aeabi_fsub>
    98d0:	e5840000 	str	r0, [r4]
    98d4:	e59d101c 	ldr	r1, [sp, #28]
    98d8:	e59d0008 	ldr	r0, [sp, #8]
    98dc:	eb000e99 	bl	d348 <__aeabi_fsub>
    98e0:	e5840004 	str	r0, [r4, #4]
    98e4:	e59d1020 	ldr	r1, [sp, #32]
    98e8:	e59d000c 	ldr	r0, [sp, #12]
    98ec:	eb000e95 	bl	d348 <__aeabi_fsub>
    98f0:	e5840008 	str	r0, [r4, #8]
    98f4:	e1a00004 	mov	r0, r4
    98f8:	e28dd010 	add	sp, sp, #16, 0
    98fc:	e8bd8010 	pop	{r4, pc}

00009900 <vec3_cross>:
    9900:	e92d47f0 	push	{r4, r5, r6, r7, r8, r9, sl, lr}
    9904:	e24dd010 	sub	sp, sp, #16, 0
    9908:	e1a04000 	mov	r4, r0
    990c:	e28d0010 	add	r0, sp, #16, 0
    9910:	e900000e 	stmdb	r0, {r1, r2, r3}
    9914:	e59d6008 	ldr	r6, [sp, #8]
    9918:	e59d8038 	ldr	r8, [sp, #56]	; 0x38
    991c:	e1a01008 	mov	r1, r8
    9920:	e1a00006 	mov	r0, r6
    9924:	eb000f30 	bl	d5ec <__aeabi_fmul>
    9928:	e1a05000 	mov	r5, r0
    992c:	e59da00c 	ldr	sl, [sp, #12]
    9930:	e59d9034 	ldr	r9, [sp, #52]	; 0x34
    9934:	e1a01009 	mov	r1, r9
    9938:	e1a0000a 	mov	r0, sl
    993c:	eb000f2a 	bl	d5ec <__aeabi_fmul>
    9940:	e1a01000 	mov	r1, r0
    9944:	e1a00005 	mov	r0, r5
    9948:	eb000e7e 	bl	d348 <__aeabi_fsub>
    994c:	e5840000 	str	r0, [r4]
    9950:	e59d7030 	ldr	r7, [sp, #48]	; 0x30
    9954:	e1a01007 	mov	r1, r7
    9958:	e1a0000a 	mov	r0, sl
    995c:	eb000f22 	bl	d5ec <__aeabi_fmul>
    9960:	e1a05000 	mov	r5, r0
    9964:	e59da004 	ldr	sl, [sp, #4]
    9968:	e1a0100a 	mov	r1, sl
    996c:	e1a00008 	mov	r0, r8
    9970:	eb000f1d 	bl	d5ec <__aeabi_fmul>
    9974:	e1a01000 	mov	r1, r0
    9978:	e1a00005 	mov	r0, r5
    997c:	eb000e71 	bl	d348 <__aeabi_fsub>
    9980:	e5840004 	str	r0, [r4, #4]
    9984:	e1a0100a 	mov	r1, sl
    9988:	e1a00009 	mov	r0, r9
    998c:	eb000f16 	bl	d5ec <__aeabi_fmul>
    9990:	e1a05000 	mov	r5, r0
    9994:	e1a01007 	mov	r1, r7
    9998:	e1a00006 	mov	r0, r6
    999c:	eb000f12 	bl	d5ec <__aeabi_fmul>
    99a0:	e1a01000 	mov	r1, r0
    99a4:	e1a00005 	mov	r0, r5
    99a8:	eb000e66 	bl	d348 <__aeabi_fsub>
    99ac:	e5840008 	str	r0, [r4, #8]
    99b0:	e1a00004 	mov	r0, r4
    99b4:	e28dd010 	add	sp, sp, #16, 0
    99b8:	e8bd87f0 	pop	{r4, r5, r6, r7, r8, r9, sl, pc}

000099bc <vec3_dot>:
    99bc:	e24dd008 	sub	sp, sp, #8, 0
    99c0:	e92d4010 	push	{r4, lr}
    99c4:	e24dd010 	sub	sp, sp, #16, 0
    99c8:	e28dc010 	add	ip, sp, #16, 0
    99cc:	e90c0007 	stmdb	ip, {r0, r1, r2}
    99d0:	e58d301c 	str	r3, [sp, #28]
    99d4:	e59d101c 	ldr	r1, [sp, #28]
    99d8:	e59d0004 	ldr	r0, [sp, #4]
    99dc:	eb000f02 	bl	d5ec <__aeabi_fmul>
    99e0:	e1a04000 	mov	r4, r0
    99e4:	e59d1020 	ldr	r1, [sp, #32]
    99e8:	e59d0008 	ldr	r0, [sp, #8]
    99ec:	eb000efe 	bl	d5ec <__aeabi_fmul>
    99f0:	e1a01000 	mov	r1, r0
    99f4:	e1a00004 	mov	r0, r4
    99f8:	eb000e53 	bl	d34c <__addsf3>
    99fc:	e1a04000 	mov	r4, r0
    9a00:	e59d1024 	ldr	r1, [sp, #36]	; 0x24
    9a04:	e59d000c 	ldr	r0, [sp, #12]
    9a08:	eb000ef7 	bl	d5ec <__aeabi_fmul>
    9a0c:	e1a01000 	mov	r1, r0
    9a10:	e1a00004 	mov	r0, r4
    9a14:	eb000e4c 	bl	d34c <__addsf3>
    9a18:	e28dd010 	add	sp, sp, #16, 0
    9a1c:	e8bd4010 	pop	{r4, lr}
    9a20:	e28dd008 	add	sp, sp, #8, 0
    9a24:	e12fff1e 	bx	lr

00009a28 <vec3_multiply>:
    9a28:	e92d4030 	push	{r4, r5, lr}
    9a2c:	e24dd014 	sub	sp, sp, #20, 0
    9a30:	e1a04000 	mov	r4, r0
    9a34:	e28d0010 	add	r0, sp, #16, 0
    9a38:	e900000e 	stmdb	r0, {r1, r2, r3}
    9a3c:	e59d5020 	ldr	r5, [sp, #32]
    9a40:	e1a01005 	mov	r1, r5
    9a44:	e59d0004 	ldr	r0, [sp, #4]
    9a48:	eb000ee7 	bl	d5ec <__aeabi_fmul>
    9a4c:	e5840000 	str	r0, [r4]
    9a50:	e1a01005 	mov	r1, r5
    9a54:	e59d0008 	ldr	r0, [sp, #8]
    9a58:	eb000ee3 	bl	d5ec <__aeabi_fmul>
    9a5c:	e5840004 	str	r0, [r4, #4]
    9a60:	e1a01005 	mov	r1, r5
    9a64:	e59d000c 	ldr	r0, [sp, #12]
    9a68:	eb000edf 	bl	d5ec <__aeabi_fmul>
    9a6c:	e5840008 	str	r0, [r4, #8]
    9a70:	e1a00004 	mov	r0, r4
    9a74:	e28dd014 	add	sp, sp, #20, 0
    9a78:	e8bd8030 	pop	{r4, r5, pc}

00009a7c <vec3_divide>:
    9a7c:	e92d4030 	push	{r4, r5, lr}
    9a80:	e24dd01c 	sub	sp, sp, #28, 0
    9a84:	e1a05000 	mov	r5, r0
    9a88:	e28d400c 	add	r4, sp, #12, 0
    9a8c:	e884000e 	stm	r4, {r1, r2, r3}
    9a90:	e59d1028 	ldr	r1, [sp, #40]	; 0x28
    9a94:	e3a005fe 	mov	r0, #1065353216	; 0x3f800000
    9a98:	eb000f39 	bl	d784 <__aeabi_fdiv>
    9a9c:	e58d0000 	str	r0, [sp]
    9aa0:	e894000e 	ldm	r4, {r1, r2, r3}
    9aa4:	e1a00005 	mov	r0, r5
    9aa8:	ebffffde 	bl	9a28 <vec3_multiply>
    9aac:	e1a00005 	mov	r0, r5
    9ab0:	e28dd01c 	add	sp, sp, #28, 0
    9ab4:	e8bd8030 	pop	{r4, r5, pc}

00009ab8 <vec3_negate>:
    9ab8:	e92d4010 	push	{r4, lr}
    9abc:	e24dd018 	sub	sp, sp, #24, 0
    9ac0:	e1a04000 	mov	r4, r0
    9ac4:	e28dc00c 	add	ip, sp, #12, 0
    9ac8:	e88c000e 	stm	ip, {r1, r2, r3}
    9acc:	e59f3014 	ldr	r3, [pc, #20]	; 9ae8 <vec3_negate+0x30>
    9ad0:	e58d3000 	str	r3, [sp]
    9ad4:	e89c000e 	ldm	ip, {r1, r2, r3}
    9ad8:	ebffffd2 	bl	9a28 <vec3_multiply>
    9adc:	e1a00004 	mov	r0, r4
    9ae0:	e28dd018 	add	sp, sp, #24, 0
    9ae4:	e8bd8010 	pop	{r4, pc}
    9ae8:	bf800000 	.word	0xbf800000

00009aec <vec3_length_squared>:
    9aec:	e92d4010 	push	{r4, lr}
    9af0:	e24dd010 	sub	sp, sp, #16, 0
    9af4:	e28d3010 	add	r3, sp, #16, 0
    9af8:	e9030007 	stmdb	r3, {r0, r1, r2}
    9afc:	e59d0004 	ldr	r0, [sp, #4]
    9b00:	e1a01000 	mov	r1, r0
    9b04:	eb000eb8 	bl	d5ec <__aeabi_fmul>
    9b08:	e1a04000 	mov	r4, r0
    9b0c:	e59d0008 	ldr	r0, [sp, #8]
    9b10:	e1a01000 	mov	r1, r0
    9b14:	eb000eb4 	bl	d5ec <__aeabi_fmul>
    9b18:	e1a01000 	mov	r1, r0
    9b1c:	e1a00004 	mov	r0, r4
    9b20:	eb000e09 	bl	d34c <__addsf3>
    9b24:	e1a04000 	mov	r4, r0
    9b28:	e59d000c 	ldr	r0, [sp, #12]
    9b2c:	e1a01000 	mov	r1, r0
    9b30:	eb000ead 	bl	d5ec <__aeabi_fmul>
    9b34:	e1a01000 	mov	r1, r0
    9b38:	e1a00004 	mov	r0, r4
    9b3c:	eb000e02 	bl	d34c <__addsf3>
    9b40:	e28dd010 	add	sp, sp, #16, 0
    9b44:	e8bd8010 	pop	{r4, pc}

00009b48 <vec3_length>:
    9b48:	e52de004 	push	{lr}		; (str lr, [sp, #-4]!)
    9b4c:	e24dd014 	sub	sp, sp, #20, 0
    9b50:	e28d3004 	add	r3, sp, #4, 0
    9b54:	e8830007 	stm	r3, {r0, r1, r2}
    9b58:	e8930007 	ldm	r3, {r0, r1, r2}
    9b5c:	ebffffe2 	bl	9aec <vec3_length_squared>
    9b60:	eb0008ad 	bl	be1c <sqrtf_babylonian>
    9b64:	e28dd014 	add	sp, sp, #20, 0
    9b68:	e49df004 	pop	{pc}		; (ldr pc, [sp], #4)

00009b6c <vec3_normalize>:
    9b6c:	e92d4030 	push	{r4, r5, lr}
    9b70:	e24dd01c 	sub	sp, sp, #28, 0
    9b74:	e1a05000 	mov	r5, r0
    9b78:	e28d400c 	add	r4, sp, #12, 0
    9b7c:	e884000e 	stm	r4, {r1, r2, r3}
    9b80:	e8940007 	ldm	r4, {r0, r1, r2}
    9b84:	ebffffef 	bl	9b48 <vec3_length>
    9b88:	e58d0000 	str	r0, [sp]
    9b8c:	e894000e 	ldm	r4, {r1, r2, r3}
    9b90:	e1a00005 	mov	r0, r5
    9b94:	ebffffb8 	bl	9a7c <vec3_divide>
    9b98:	e1a00005 	mov	r0, r5
    9b9c:	e28dd01c 	add	sp, sp, #28, 0
    9ba0:	e8bd8030 	pop	{r4, r5, pc}

00009ba4 <vec3_to_pixel_value>:
    9ba4:	e92d43f0 	push	{r4, r5, r6, r7, r8, r9, lr}
    9ba8:	e24dd014 	sub	sp, sp, #20, 0
    9bac:	e28dc010 	add	ip, sp, #16, 0
    9bb0:	e90c0007 	stmdb	ip, {r0, r1, r2}
    9bb4:	e59d7008 	ldr	r7, [sp, #8]
    9bb8:	e59d600c 	ldr	r6, [sp, #12]
    9bbc:	e1a00003 	mov	r0, r3
    9bc0:	eb000bdb 	bl	cb34 <__aeabi_i2d>
    9bc4:	e1a02000 	mov	r2, r0
    9bc8:	e1a03001 	mov	r3, r1
    9bcc:	e3a00000 	mov	r0, #0, 0
    9bd0:	e59f10bc 	ldr	r1, [pc, #188]	; 9c94 <vec3_to_pixel_value+0xf0>
    9bd4:	eb000cb1 	bl	cea0 <__aeabi_ddiv>
    9bd8:	eb000db0 	bl	d2a0 <__aeabi_d2f>
    9bdc:	e1a04000 	mov	r4, r0
    9be0:	e1a01000 	mov	r1, r0
    9be4:	e59d0004 	ldr	r0, [sp, #4]
    9be8:	eb000e7f 	bl	d5ec <__aeabi_fmul>
    9bec:	eb00088a 	bl	be1c <sqrtf_babylonian>
    9bf0:	e1a05000 	mov	r5, r0
    9bf4:	e1a01004 	mov	r1, r4
    9bf8:	e1a00007 	mov	r0, r7
    9bfc:	eb000e7a 	bl	d5ec <__aeabi_fmul>
    9c00:	eb000885 	bl	be1c <sqrtf_babylonian>
    9c04:	e1a09000 	mov	r9, r0
    9c08:	e1a01004 	mov	r1, r4
    9c0c:	e1a00006 	mov	r0, r6
    9c10:	eb000e75 	bl	d5ec <__aeabi_fmul>
    9c14:	eb000880 	bl	be1c <sqrtf_babylonian>
    9c18:	e1a06000 	mov	r6, r0
    9c1c:	e59f8074 	ldr	r8, [pc, #116]	; 9c98 <vec3_to_pixel_value+0xf4>
    9c20:	e3a07000 	mov	r7, #0, 0
    9c24:	e1a02008 	mov	r2, r8
    9c28:	e1a01007 	mov	r1, r7
    9c2c:	e1a00005 	mov	r0, r5
    9c30:	eb000899 	bl	be9c <clamp>
    9c34:	e59f1060 	ldr	r1, [pc, #96]	; 9c9c <vec3_to_pixel_value+0xf8>
    9c38:	eb000e6b 	bl	d5ec <__aeabi_fmul>
    9c3c:	eb000f6d 	bl	d9f8 <__aeabi_f2iz>
    9c40:	e1a05000 	mov	r5, r0
    9c44:	e1a02008 	mov	r2, r8
    9c48:	e1a01007 	mov	r1, r7
    9c4c:	e1a00009 	mov	r0, r9
    9c50:	eb000891 	bl	be9c <clamp>
    9c54:	e59f1040 	ldr	r1, [pc, #64]	; 9c9c <vec3_to_pixel_value+0xf8>
    9c58:	eb000e63 	bl	d5ec <__aeabi_fmul>
    9c5c:	eb000f65 	bl	d9f8 <__aeabi_f2iz>
    9c60:	e1a04000 	mov	r4, r0
    9c64:	e1a02008 	mov	r2, r8
    9c68:	e1a01007 	mov	r1, r7
    9c6c:	e1a00006 	mov	r0, r6
    9c70:	eb000889 	bl	be9c <clamp>
    9c74:	e59f1020 	ldr	r1, [pc, #32]	; 9c9c <vec3_to_pixel_value+0xf8>
    9c78:	eb000e5b 	bl	d5ec <__aeabi_fmul>
    9c7c:	eb000f5d 	bl	d9f8 <__aeabi_f2iz>
    9c80:	e1a04404 	lsl	r4, r4, #8
    9c84:	e1844805 	orr	r4, r4, r5, lsl #16
    9c88:	e1840000 	orr	r0, r4, r0
    9c8c:	e28dd014 	add	sp, sp, #20, 0
    9c90:	e8bd83f0 	pop	{r4, r5, r6, r7, r8, r9, pc}
    9c94:	3ff00000 	.word	0x3ff00000
    9c98:	3f7fbe77 	.word	0x3f7fbe77
    9c9c:	43800000 	.word	0x43800000

00009ca0 <vec3_print>:
    9ca0:	e92d40d0 	push	{r4, r6, r7, lr}
    9ca4:	e24dd020 	sub	sp, sp, #32, 0
    9ca8:	e1a04000 	mov	r4, r0
    9cac:	e28d0020 	add	r0, sp, #32, 0
    9cb0:	e900000e 	stmdb	r0, {r1, r2, r3}
    9cb4:	e59d0014 	ldr	r0, [sp, #20]
    9cb8:	eb000ba7 	bl	cb5c <__aeabi_f2d>
    9cbc:	e1a06000 	mov	r6, r0
    9cc0:	e1a07001 	mov	r7, r1
    9cc4:	e59d001c 	ldr	r0, [sp, #28]
    9cc8:	eb000ba3 	bl	cb5c <__aeabi_f2d>
    9ccc:	e1cd00f8 	strd	r0, [sp, #8]
    9cd0:	e59d0018 	ldr	r0, [sp, #24]
    9cd4:	eb000ba0 	bl	cb5c <__aeabi_f2d>
    9cd8:	e1cd00f0 	strd	r0, [sp]
    9cdc:	e1a02006 	mov	r2, r6
    9ce0:	e1a03007 	mov	r3, r7
    9ce4:	e1a01004 	mov	r1, r4
    9ce8:	e59f0008 	ldr	r0, [pc, #8]	; 9cf8 <vec3_print+0x58>
    9cec:	eb0007f2 	bl	bcbc <printf_>
    9cf0:	e28dd020 	add	sp, sp, #32, 0
    9cf4:	e8bd80d0 	pop	{r4, r6, r7, pc}
    9cf8:	0000ea20 	.word	0x0000ea20

00009cfc <_random>:
    9cfc:	e92d4010 	push	{r4, lr}
    9d00:	e1a04000 	mov	r4, r0
    9d04:	eb00088b 	bl	bf38 <random_float>
    9d08:	e5840000 	str	r0, [r4]
    9d0c:	eb000889 	bl	bf38 <random_float>
    9d10:	e5840004 	str	r0, [r4, #4]
    9d14:	eb000887 	bl	bf38 <random_float>
    9d18:	e5840008 	str	r0, [r4, #8]
    9d1c:	e1a00004 	mov	r0, r4
    9d20:	e8bd8010 	pop	{r4, pc}

00009d24 <random_bounded>:
    9d24:	e92d4070 	push	{r4, r5, r6, lr}
    9d28:	e1a04000 	mov	r4, r0
    9d2c:	e1a05001 	mov	r5, r1
    9d30:	e1a06002 	mov	r6, r2
    9d34:	e1a01002 	mov	r1, r2
    9d38:	e1a00005 	mov	r0, r5
    9d3c:	eb000887 	bl	bf60 <random_float_bounded>
    9d40:	e5840000 	str	r0, [r4]
    9d44:	e1a01006 	mov	r1, r6
    9d48:	e1a00005 	mov	r0, r5
    9d4c:	eb000883 	bl	bf60 <random_float_bounded>
    9d50:	e5840004 	str	r0, [r4, #4]
    9d54:	e1a01006 	mov	r1, r6
    9d58:	e1a00005 	mov	r0, r5
    9d5c:	eb00087f 	bl	bf60 <random_float_bounded>
    9d60:	e5840008 	str	r0, [r4, #8]
    9d64:	e1a00004 	mov	r0, r4
    9d68:	e8bd8070 	pop	{r4, r5, r6, pc}

00009d6c <random_in_unit_sphere>:
    9d6c:	e92d4070 	push	{r4, r5, r6, lr}
    9d70:	e1a04000 	mov	r4, r0
    9d74:	e3a055fe 	mov	r5, #1065353216	; 0x3f800000
    9d78:	e1a02005 	mov	r2, r5
    9d7c:	e59f1024 	ldr	r1, [pc, #36]	; 9da8 <random_in_unit_sphere+0x3c>
    9d80:	e1a00004 	mov	r0, r4
    9d84:	ebffffe6 	bl	9d24 <random_bounded>
    9d88:	e8940007 	ldm	r4, {r0, r1, r2}
    9d8c:	ebffff56 	bl	9aec <vec3_length_squared>
    9d90:	e1a01005 	mov	r1, r5
    9d94:	eb000f0b 	bl	d9c8 <__aeabi_fcmpge>
    9d98:	e3500000 	cmp	r0, #0, 0
    9d9c:	1afffff4 	bne	9d74 <random_in_unit_sphere+0x8>
    9da0:	e1a00004 	mov	r0, r4
    9da4:	e8bd8070 	pop	{r4, r5, r6, pc}
    9da8:	bf800000 	.word	0xbf800000

00009dac <random_unit_vector>:
    9dac:	e92d4030 	push	{r4, r5, lr}
    9db0:	e24dd014 	sub	sp, sp, #20, 0
    9db4:	e1a04000 	mov	r4, r0
    9db8:	e28d5004 	add	r5, sp, #4, 0
    9dbc:	e1a00005 	mov	r0, r5
    9dc0:	ebffffe9 	bl	9d6c <random_in_unit_sphere>
    9dc4:	e895000e 	ldm	r5, {r1, r2, r3}
    9dc8:	e1a00004 	mov	r0, r4
    9dcc:	ebffff66 	bl	9b6c <vec3_normalize>
    9dd0:	e1a00004 	mov	r0, r4
    9dd4:	e28dd014 	add	sp, sp, #20, 0
    9dd8:	e8bd8030 	pop	{r4, r5, pc}

00009ddc <less_than_abs>:
    9ddc:	e92d4070 	push	{r4, r5, r6, lr}
    9de0:	e1a04000 	mov	r4, r0
    9de4:	e1a05001 	mov	r5, r1
    9de8:	eb000eea 	bl	d998 <__aeabi_fcmplt>
    9dec:	e3500000 	cmp	r0, #0, 0
    9df0:	0a000006 	beq	9e10 <less_than_abs+0x34>
    9df4:	e3a01000 	mov	r1, #0, 0
    9df8:	e1a00004 	mov	r0, r4
    9dfc:	eb000ef7 	bl	d9e0 <__aeabi_fcmpgt>
    9e00:	e3500000 	cmp	r0, #0, 0
    9e04:	0a000001 	beq	9e10 <less_than_abs+0x34>
    9e08:	e3a00001 	mov	r0, #1, 0
    9e0c:	e8bd8070 	pop	{r4, r5, r6, pc}
    9e10:	e1a01005 	mov	r1, r5
    9e14:	e1a00004 	mov	r0, r4
    9e18:	eb000ef0 	bl	d9e0 <__aeabi_fcmpgt>
    9e1c:	e3500000 	cmp	r0, #0, 0
    9e20:	0a000006 	beq	9e40 <less_than_abs+0x64>
    9e24:	e3a01000 	mov	r1, #0, 0
    9e28:	e1a00004 	mov	r0, r4
    9e2c:	eb000ed9 	bl	d998 <__aeabi_fcmplt>
    9e30:	e3500000 	cmp	r0, #0, 0
    9e34:	08bd8070 	popeq	{r4, r5, r6, pc}
    9e38:	e3a00001 	mov	r0, #1, 0
    9e3c:	e8bd8070 	pop	{r4, r5, r6, pc}
    9e40:	e3a00000 	mov	r0, #0, 0
    9e44:	e8bd8070 	pop	{r4, r5, r6, pc}

00009e48 <vec3_fabs>:
    9e48:	e92d4010 	push	{r4, lr}
    9e4c:	e1a04000 	mov	r4, r0
    9e50:	e3a01000 	mov	r1, #0, 0
    9e54:	eb000ecf 	bl	d998 <__aeabi_fcmplt>
    9e58:	e3500000 	cmp	r0, #0, 0
    9e5c:	1a000001 	bne	9e68 <vec3_fabs+0x20>
    9e60:	e1a00004 	mov	r0, r4
    9e64:	e8bd8010 	pop	{r4, pc}
    9e68:	e2844102 	add	r4, r4, #-2147483648	; 0x80000000
    9e6c:	eafffffb 	b	9e60 <vec3_fabs+0x18>

00009e70 <vec3_near_zero>:
    9e70:	e52de004 	push	{lr}		; (str lr, [sp, #-4]!)
    9e74:	e24dd014 	sub	sp, sp, #20, 0
    9e78:	e28d3010 	add	r3, sp, #16, 0
    9e7c:	e9030007 	stmdb	r3, {r0, r1, r2}
    9e80:	e59f103c 	ldr	r1, [pc, #60]	; 9ec4 <vec3_near_zero+0x54>
    9e84:	e59d0004 	ldr	r0, [sp, #4]
    9e88:	ebffffd3 	bl	9ddc <less_than_abs>
    9e8c:	e3500000 	cmp	r0, #0, 0
    9e90:	0a000009 	beq	9ebc <vec3_near_zero+0x4c>
    9e94:	e59f1028 	ldr	r1, [pc, #40]	; 9ec4 <vec3_near_zero+0x54>
    9e98:	e59d0008 	ldr	r0, [sp, #8]
    9e9c:	ebffffce 	bl	9ddc <less_than_abs>
    9ea0:	e3500000 	cmp	r0, #0, 0
    9ea4:	0a000004 	beq	9ebc <vec3_near_zero+0x4c>
    9ea8:	e59f1014 	ldr	r1, [pc, #20]	; 9ec4 <vec3_near_zero+0x54>
    9eac:	e59d000c 	ldr	r0, [sp, #12]
    9eb0:	ebffffc9 	bl	9ddc <less_than_abs>
    9eb4:	e3500000 	cmp	r0, #0, 0
    9eb8:	13a00001 	movne	r0, #1, 0
    9ebc:	e28dd014 	add	sp, sp, #20, 0
    9ec0:	e49df004 	pop	{pc}		; (ldr pc, [sp], #4)
    9ec4:	322bcc77 	.word	0x322bcc77

00009ec8 <vec3_reflect>:
    9ec8:	e92d40f0 	push	{r4, r5, r6, r7, lr}
    9ecc:	e24dd034 	sub	sp, sp, #52, 0	; 0x34
    9ed0:	e1a06000 	mov	r6, r0
    9ed4:	e28d4014 	add	r4, sp, #20, 0
    9ed8:	e884000e 	stm	r4, {r1, r2, r3}
    9edc:	e59d1050 	ldr	r1, [sp, #80]	; 0x50
    9ee0:	e59d004c 	ldr	r0, [sp, #76]	; 0x4c
    9ee4:	e88d0003 	stm	sp, {r0, r1}
    9ee8:	e28d5044 	add	r5, sp, #68, 0	; 0x44
    9eec:	e5b53004 	ldr	r3, [r5, #4]!
    9ef0:	e8940007 	ldm	r4, {r0, r1, r2}
    9ef4:	ebfffeb0 	bl	99bc <vec3_dot>
    9ef8:	e1a01000 	mov	r1, r0
    9efc:	eb000d12 	bl	d34c <__addsf3>
    9f00:	e28d7024 	add	r7, sp, #36, 0	; 0x24
    9f04:	e58d0000 	str	r0, [sp]
    9f08:	e895000e 	ldm	r5, {r1, r2, r3}
    9f0c:	e1a00007 	mov	r0, r7
    9f10:	ebfffec4 	bl	9a28 <vec3_multiply>
    9f14:	e8970007 	ldm	r7, {r0, r1, r2}
    9f18:	e88d0007 	stm	sp, {r0, r1, r2}
    9f1c:	e894000e 	ldm	r4, {r1, r2, r3}
    9f20:	e1a00006 	mov	r0, r6
    9f24:	ebfffe61 	bl	98b0 <vec3_subtract>
    9f28:	e1a00006 	mov	r0, r6
    9f2c:	e28dd034 	add	sp, sp, #52, 0	; 0x34
    9f30:	e8bd80f0 	pop	{r4, r5, r6, r7, pc}

00009f34 <vec3_fmin>:
    9f34:	e92d4070 	push	{r4, r5, r6, lr}
    9f38:	e1a05000 	mov	r5, r0
    9f3c:	e1a04001 	mov	r4, r1
    9f40:	eb000e94 	bl	d998 <__aeabi_fcmplt>
    9f44:	e3500000 	cmp	r0, #0, 0
    9f48:	11a04005 	movne	r4, r5
    9f4c:	e1a00004 	mov	r0, r4
    9f50:	e8bd8070 	pop	{r4, r5, r6, pc}

00009f54 <vec3_refract>:
    9f54:	e92d43f0 	push	{r4, r5, r6, r7, r8, r9, lr}
    9f58:	e24dd064 	sub	sp, sp, #100, 0	; 0x64
    9f5c:	e1a06000 	mov	r6, r0
    9f60:	e28d4014 	add	r4, sp, #20, 0
    9f64:	e884000e 	stm	r4, {r1, r2, r3}
    9f68:	e28d703c 	add	r7, sp, #60, 0	; 0x3c
    9f6c:	e894000e 	ldm	r4, {r1, r2, r3}
    9f70:	e1a00007 	mov	r0, r7
    9f74:	ebfffecf 	bl	9ab8 <vec3_negate>
    9f78:	e59d1088 	ldr	r1, [sp, #136]	; 0x88
    9f7c:	e59d0084 	ldr	r0, [sp, #132]	; 0x84
    9f80:	e88d0003 	stm	sp, {r0, r1}
    9f84:	e28d507c 	add	r5, sp, #124, 0	; 0x7c
    9f88:	e5b53004 	ldr	r3, [r5, #4]!
    9f8c:	e8970007 	ldm	r7, {r0, r1, r2}
    9f90:	ebfffe89 	bl	99bc <vec3_dot>
    9f94:	e3a095fe 	mov	r9, #1065353216	; 0x3f800000
    9f98:	e1a01009 	mov	r1, r9
    9f9c:	ebffffe4 	bl	9f34 <vec3_fmin>
    9fa0:	e28d8048 	add	r8, sp, #72, 0	; 0x48
    9fa4:	e58d0000 	str	r0, [sp]
    9fa8:	e895000e 	ldm	r5, {r1, r2, r3}
    9fac:	e1a00008 	mov	r0, r8
    9fb0:	ebfffe9c 	bl	9a28 <vec3_multiply>
    9fb4:	e28d7054 	add	r7, sp, #84, 0	; 0x54
    9fb8:	e8980007 	ldm	r8, {r0, r1, r2}
    9fbc:	e88d0007 	stm	sp, {r0, r1, r2}
    9fc0:	e894000e 	ldm	r4, {r1, r2, r3}
    9fc4:	e1a00007 	mov	r0, r7
    9fc8:	ebfffe24 	bl	9860 <vec3_add>
    9fcc:	e28d4030 	add	r4, sp, #48, 0	; 0x30
    9fd0:	e59d308c 	ldr	r3, [sp, #140]	; 0x8c
    9fd4:	e58d3000 	str	r3, [sp]
    9fd8:	e897000e 	ldm	r7, {r1, r2, r3}
    9fdc:	e1a00004 	mov	r0, r4
    9fe0:	ebfffe90 	bl	9a28 <vec3_multiply>
    9fe4:	e8940007 	ldm	r4, {r0, r1, r2}
    9fe8:	ebfffebf 	bl	9aec <vec3_length_squared>
    9fec:	e1a01000 	mov	r1, r0
    9ff0:	e1a00009 	mov	r0, r9
    9ff4:	eb000cd3 	bl	d348 <__aeabi_fsub>
    9ff8:	ebffff92 	bl	9e48 <vec3_fabs>
    9ffc:	eb000786 	bl	be1c <sqrtf_babylonian>
    a000:	e28d7024 	add	r7, sp, #36, 0	; 0x24
    a004:	e2800102 	add	r0, r0, #-2147483648	; 0x80000000
    a008:	e58d0000 	str	r0, [sp]
    a00c:	e895000e 	ldm	r5, {r1, r2, r3}
    a010:	e1a00007 	mov	r0, r7
    a014:	ebfffe83 	bl	9a28 <vec3_multiply>
    a018:	e8970007 	ldm	r7, {r0, r1, r2}
    a01c:	e88d0007 	stm	sp, {r0, r1, r2}
    a020:	e894000e 	ldm	r4, {r1, r2, r3}
    a024:	e1a00006 	mov	r0, r6
    a028:	ebfffe0c 	bl	9860 <vec3_add>
    a02c:	e1a00006 	mov	r0, r6
    a030:	e28dd064 	add	sp, sp, #100, 0	; 0x64
    a034:	e8bd83f0 	pop	{r4, r5, r6, r7, r8, r9, pc}

0000a038 <random_in_unit_disk>:
    a038:	e92d4070 	push	{r4, r5, r6, lr}
    a03c:	e1a04000 	mov	r4, r0
    a040:	e3a055fe 	mov	r5, #1065353216	; 0x3f800000
    a044:	e59f6044 	ldr	r6, [pc, #68]	; a090 <random_in_unit_disk+0x58>
    a048:	e1a01005 	mov	r1, r5
    a04c:	e1a00006 	mov	r0, r6
    a050:	eb0007c2 	bl	bf60 <random_float_bounded>
    a054:	e5840000 	str	r0, [r4]
    a058:	e1a01005 	mov	r1, r5
    a05c:	e1a00006 	mov	r0, r6
    a060:	eb0007be 	bl	bf60 <random_float_bounded>
    a064:	e5840004 	str	r0, [r4, #4]
    a068:	e3a03000 	mov	r3, #0, 0
    a06c:	e5843008 	str	r3, [r4, #8]
    a070:	e8940007 	ldm	r4, {r0, r1, r2}
    a074:	ebfffe9c 	bl	9aec <vec3_length_squared>
    a078:	e1a01005 	mov	r1, r5
    a07c:	eb000e51 	bl	d9c8 <__aeabi_fcmpge>
    a080:	e3500000 	cmp	r0, #0, 0
    a084:	1affffed 	bne	a040 <random_in_unit_disk+0x8>
    a088:	e1a00004 	mov	r0, r4
    a08c:	e8bd8070 	pop	{r4, r5, r6, pc}
    a090:	bf800000 	.word	0xbf800000

0000a094 <_out_buffer>:
    a094:	e1520003 	cmp	r2, r3
    a098:	37c10002 	strbcc	r0, [r1, r2]
    a09c:	e12fff1e 	bx	lr

0000a0a0 <_out_null>:
    a0a0:	e12fff1e 	bx	lr

0000a0a4 <_out_char>:
    a0a4:	e3500000 	cmp	r0, #0, 0
    a0a8:	012fff1e 	bxeq	lr
    a0ac:	e92d4010 	push	{r4, lr}
    a0b0:	e59f3008 	ldr	r3, [pc, #8]	; a0c0 <_out_char+0x1c>
    a0b4:	e5933000 	ldr	r3, [r3]
    a0b8:	e12fff33 	blx	r3
    a0bc:	e8bd8010 	pop	{r4, pc}
    a0c0:	0000f200 	.word	0x0000f200

0000a0c4 <_out_fct>:
    a0c4:	e3500000 	cmp	r0, #0, 0
    a0c8:	012fff1e 	bxeq	lr
    a0cc:	e92d4010 	push	{r4, lr}
    a0d0:	e5913000 	ldr	r3, [r1]
    a0d4:	e5911004 	ldr	r1, [r1, #4]
    a0d8:	e12fff33 	blx	r3
    a0dc:	e8bd8010 	pop	{r4, pc}

0000a0e0 <_atoi>:
    a0e0:	e1a01000 	mov	r1, r0
    a0e4:	e3a00000 	mov	r0, #0, 0
    a0e8:	e5912000 	ldr	r2, [r1]
    a0ec:	e5d23000 	ldrb	r3, [r2]
    a0f0:	e2433030 	sub	r3, r3, #48, 0	; 0x30
    a0f4:	e6ef3073 	uxtb	r3, r3
    a0f8:	e3530009 	cmp	r3, #9, 0
    a0fc:	812fff1e 	bxhi	lr
    a100:	e0800100 	add	r0, r0, r0, lsl #2
    a104:	e2823001 	add	r3, r2, #1, 0
    a108:	e5813000 	str	r3, [r1]
    a10c:	e5d23000 	ldrb	r3, [r2]
    a110:	e0830080 	add	r0, r3, r0, lsl #1
    a114:	e2400030 	sub	r0, r0, #48, 0	; 0x30
    a118:	eafffff2 	b	a0e8 <_atoi+0x8>

0000a11c <_out_rev>:
    a11c:	e92d4ff0 	push	{r4, r5, r6, r7, r8, r9, sl, fp, lr}
    a120:	e24dd00c 	sub	sp, sp, #12, 0
    a124:	e1a05000 	mov	r5, r0
    a128:	e1a06001 	mov	r6, r1
    a12c:	e1a0b002 	mov	fp, r2
    a130:	e1a07003 	mov	r7, r3
    a134:	e59da030 	ldr	sl, [sp, #48]	; 0x30
    a138:	e59d4034 	ldr	r4, [sp, #52]	; 0x34
    a13c:	e59d9038 	ldr	r9, [sp, #56]	; 0x38
    a140:	e59d303c 	ldr	r3, [sp, #60]	; 0x3c
    a144:	e3130003 	tst	r3, #3, 0
    a148:	1a000014 	bne	a1a0 <_out_rev+0x84>
    a14c:	e1a08004 	mov	r8, r4
    a150:	e58d2004 	str	r2, [sp, #4]
    a154:	e1580009 	cmp	r8, r9
    a158:	2a000007 	bcs	a17c <_out_rev+0x60>
    a15c:	e282b001 	add	fp, r2, #1, 0
    a160:	e1a03007 	mov	r3, r7
    a164:	e1a01006 	mov	r1, r6
    a168:	e3a00020 	mov	r0, #32, 0
    a16c:	e12fff35 	blx	r5
    a170:	e2888001 	add	r8, r8, #1, 0
    a174:	e1a0200b 	mov	r2, fp
    a178:	eafffff5 	b	a154 <_out_rev+0x38>
    a17c:	e59db004 	ldr	fp, [sp, #4]
    a180:	ea000006 	b	a1a0 <_out_rev+0x84>
    a184:	e2444001 	sub	r4, r4, #1, 0
    a188:	e2828001 	add	r8, r2, #1, 0
    a18c:	e1a03007 	mov	r3, r7
    a190:	e1a01006 	mov	r1, r6
    a194:	e7da0004 	ldrb	r0, [sl, r4]
    a198:	e12fff35 	blx	r5
    a19c:	e1a02008 	mov	r2, r8
    a1a0:	e3540000 	cmp	r4, #0, 0
    a1a4:	1afffff6 	bne	a184 <_out_rev+0x68>
    a1a8:	e59d303c 	ldr	r3, [sp, #60]	; 0x3c
    a1ac:	e3130002 	tst	r3, #2, 0
    a1b0:	1a000002 	bne	a1c0 <_out_rev+0xa4>
    a1b4:	e1a00002 	mov	r0, r2
    a1b8:	e28dd00c 	add	sp, sp, #12, 0
    a1bc:	e8bd8ff0 	pop	{r4, r5, r6, r7, r8, r9, sl, fp, pc}
    a1c0:	e042300b 	sub	r3, r2, fp
    a1c4:	e1530009 	cmp	r3, r9
    a1c8:	2afffff9 	bcs	a1b4 <_out_rev+0x98>
    a1cc:	e2824001 	add	r4, r2, #1, 0
    a1d0:	e1a03007 	mov	r3, r7
    a1d4:	e1a01006 	mov	r1, r6
    a1d8:	e3a00020 	mov	r0, #32, 0
    a1dc:	e12fff35 	blx	r5
    a1e0:	e1a02004 	mov	r2, r4
    a1e4:	eafffff5 	b	a1c0 <_out_rev+0xa4>

0000a1e8 <_ntoa_format>:
    a1e8:	e92d43f0 	push	{r4, r5, r6, r7, r8, r9, lr}
    a1ec:	e24dd014 	sub	sp, sp, #20, 0
    a1f0:	e59de030 	ldr	lr, [sp, #48]	; 0x30
    a1f4:	e59dc034 	ldr	ip, [sp, #52]	; 0x34
    a1f8:	e5dd9038 	ldrb	r9, [sp, #56]	; 0x38
    a1fc:	e59d803c 	ldr	r8, [sp, #60]	; 0x3c
    a200:	e59d7040 	ldr	r7, [sp, #64]	; 0x40
    a204:	e59d6044 	ldr	r6, [sp, #68]	; 0x44
    a208:	e59d4048 	ldr	r4, [sp, #72]	; 0x48
    a20c:	e3140002 	tst	r4, #2, 0
    a210:	1a000017 	bne	a274 <_ntoa_format+0x8c>
    a214:	e3560000 	cmp	r6, #0, 0
    a218:	0a000006 	beq	a238 <_ntoa_format+0x50>
    a21c:	e3140001 	tst	r4, #1, 0
    a220:	0a000004 	beq	a238 <_ntoa_format+0x50>
    a224:	e3590000 	cmp	r9, #0, 0
    a228:	1a000001 	bne	a234 <_ntoa_format+0x4c>
    a22c:	e314000c 	tst	r4, #12, 0
    a230:	0a000000 	beq	a238 <_ntoa_format+0x50>
    a234:	e2466001 	sub	r6, r6, #1, 0
    a238:	e35c001f 	cmp	ip, #31, 0
    a23c:	915c0007 	cmpls	ip, r7
    a240:	2a000006 	bcs	a260 <_ntoa_format+0x78>
    a244:	e3a05030 	mov	r5, #48, 0	; 0x30
    a248:	e7ce500c 	strb	r5, [lr, ip]
    a24c:	e28cc001 	add	ip, ip, #1, 0
    a250:	eafffff8 	b	a238 <_ntoa_format+0x50>
    a254:	e3a05030 	mov	r5, #48, 0	; 0x30
    a258:	e7ce500c 	strb	r5, [lr, ip]
    a25c:	e28cc001 	add	ip, ip, #1, 0
    a260:	e3140001 	tst	r4, #1, 0
    a264:	0a000002 	beq	a274 <_ntoa_format+0x8c>
    a268:	e35c001f 	cmp	ip, #31, 0
    a26c:	915c0006 	cmpls	ip, r6
    a270:	3afffff7 	bcc	a254 <_ntoa_format+0x6c>
    a274:	e3140010 	tst	r4, #16, 0
    a278:	0a00001c 	beq	a2f0 <_ntoa_format+0x108>
    a27c:	e3140b01 	tst	r4, #1024	; 0x400
    a280:	1a00000d 	bne	a2bc <_ntoa_format+0xd4>
    a284:	e35c0000 	cmp	ip, #0, 0
    a288:	0a00000b 	beq	a2bc <_ntoa_format+0xd4>
    a28c:	e15c0006 	cmp	ip, r6
    a290:	115c0007 	cmpne	ip, r7
    a294:	1a000008 	bne	a2bc <_ntoa_format+0xd4>
    a298:	e25c7001 	subs	r7, ip, #1, 0
    a29c:	13a05001 	movne	r5, #1, 0
    a2a0:	03a05000 	moveq	r5, #0, 0
    a2a4:	e3580010 	cmp	r8, #16, 0
    a2a8:	13a05000 	movne	r5, #0, 0
    a2ac:	02055001 	andeq	r5, r5, #1, 0
    a2b0:	e3550000 	cmp	r5, #0, 0
    a2b4:	0a00001b 	beq	a328 <_ntoa_format+0x140>
    a2b8:	e24cc002 	sub	ip, ip, #2, 0
    a2bc:	e3580010 	cmp	r8, #16, 0
    a2c0:	0a00001a 	beq	a330 <_ntoa_format+0x148>
    a2c4:	e3580010 	cmp	r8, #16, 0
    a2c8:	0a000020 	beq	a350 <_ntoa_format+0x168>
    a2cc:	e35c001f 	cmp	ip, #31, 0
    a2d0:	93580002 	cmpls	r8, #2, 0
    a2d4:	03a05062 	moveq	r5, #98, 0	; 0x62
    a2d8:	07ce500c 	strbeq	r5, [lr, ip]
    a2dc:	028cc001 	addeq	ip, ip, #1, 0
    a2e0:	e35c001f 	cmp	ip, #31, 0
    a2e4:	93a05030 	movls	r5, #48, 0	; 0x30
    a2e8:	97ce500c 	strbls	r5, [lr, ip]
    a2ec:	928cc001 	addls	ip, ip, #1, 0
    a2f0:	e35c001f 	cmp	ip, #31, 0
    a2f4:	8a000004 	bhi	a30c <_ntoa_format+0x124>
    a2f8:	e3590000 	cmp	r9, #0, 0
    a2fc:	0a00001b 	beq	a370 <_ntoa_format+0x188>
    a300:	e3a0502d 	mov	r5, #45, 0	; 0x2d
    a304:	e7ce500c 	strb	r5, [lr, ip]
    a308:	e28cc001 	add	ip, ip, #1, 0
    a30c:	e58d400c 	str	r4, [sp, #12]
    a310:	e58d6008 	str	r6, [sp, #8]
    a314:	e58dc004 	str	ip, [sp, #4]
    a318:	e58de000 	str	lr, [sp]
    a31c:	ebffff7e 	bl	a11c <_out_rev>
    a320:	e28dd014 	add	sp, sp, #20, 0
    a324:	e8bd83f0 	pop	{r4, r5, r6, r7, r8, r9, pc}
    a328:	e1a0c007 	mov	ip, r7
    a32c:	eaffffe2 	b	a2bc <_ntoa_format+0xd4>
    a330:	e3140020 	tst	r4, #32, 0
    a334:	1affffe2 	bne	a2c4 <_ntoa_format+0xdc>
    a338:	e35c001f 	cmp	ip, #31, 0
    a33c:	8affffe0 	bhi	a2c4 <_ntoa_format+0xdc>
    a340:	e3a05078 	mov	r5, #120, 0	; 0x78
    a344:	e7ce500c 	strb	r5, [lr, ip]
    a348:	e28cc001 	add	ip, ip, #1, 0
    a34c:	eaffffe3 	b	a2e0 <_ntoa_format+0xf8>
    a350:	e3140020 	tst	r4, #32, 0
    a354:	0affffdc 	beq	a2cc <_ntoa_format+0xe4>
    a358:	e35c001f 	cmp	ip, #31, 0
    a35c:	8affffda 	bhi	a2cc <_ntoa_format+0xe4>
    a360:	e3a05058 	mov	r5, #88, 0	; 0x58
    a364:	e7ce500c 	strb	r5, [lr, ip]
    a368:	e28cc001 	add	ip, ip, #1, 0
    a36c:	eaffffdb 	b	a2e0 <_ntoa_format+0xf8>
    a370:	e3140004 	tst	r4, #4, 0
    a374:	13a0502b 	movne	r5, #43, 0	; 0x2b
    a378:	17ce500c 	strbne	r5, [lr, ip]
    a37c:	128cc001 	addne	ip, ip, #1, 0
    a380:	1affffe1 	bne	a30c <_ntoa_format+0x124>
    a384:	e3140008 	tst	r4, #8, 0
    a388:	13a05020 	movne	r5, #32, 0
    a38c:	17ce500c 	strbne	r5, [lr, ip]
    a390:	128cc001 	addne	ip, ip, #1, 0
    a394:	eaffffdc 	b	a30c <_ntoa_format+0x124>

0000a398 <_ntoa_long>:
    a398:	e92d4ff0 	push	{r4, r5, r6, r7, r8, r9, sl, fp, lr}
    a39c:	e24dd04c 	sub	sp, sp, #76, 0	; 0x4c
    a3a0:	e1a09000 	mov	r9, r0
    a3a4:	e1a0a001 	mov	sl, r1
    a3a8:	e58d2024 	str	r2, [sp, #36]	; 0x24
    a3ac:	e1a0b003 	mov	fp, r3
    a3b0:	e59d4070 	ldr	r4, [sp, #112]	; 0x70
    a3b4:	e59d6078 	ldr	r6, [sp, #120]	; 0x78
    a3b8:	e59d8084 	ldr	r8, [sp, #132]	; 0x84
    a3bc:	e3540000 	cmp	r4, #0, 0
    a3c0:	03c88010 	biceq	r8, r8, #16, 0
    a3c4:	e2185b01 	ands	r5, r8, #1024	; 0x400
    a3c8:	0a000015 	beq	a424 <_ntoa_long+0x8c>
    a3cc:	e3540000 	cmp	r4, #0, 0
    a3d0:	0a000023 	beq	a464 <_ntoa_long+0xcc>
    a3d4:	e3a05000 	mov	r5, #0, 0
    a3d8:	ea000011 	b	a424 <_ntoa_long+0x8c>
    a3dc:	e2831030 	add	r1, r3, #48, 0	; 0x30
    a3e0:	e6ef1071 	uxtb	r1, r1
    a3e4:	e2857001 	add	r7, r5, #1, 0
    a3e8:	e28d3048 	add	r3, sp, #72, 0	; 0x48
    a3ec:	e0835005 	add	r5, r3, r5
    a3f0:	e5451020 	strb	r1, [r5, #-32]	; 0xffffffe0
    a3f4:	e1a01006 	mov	r1, r6
    a3f8:	e1a00004 	mov	r0, r4
    a3fc:	eb0008b6 	bl	c6dc <__udivsi3>
    a400:	e1540006 	cmp	r4, r6
    a404:	33a04000 	movcc	r4, #0, 0
    a408:	23a04001 	movcs	r4, #1, 0
    a40c:	e357001f 	cmp	r7, #31, 0
    a410:	83a04000 	movhi	r4, #0, 0
    a414:	e3540000 	cmp	r4, #0, 0
    a418:	0a000012 	beq	a468 <_ntoa_long+0xd0>
    a41c:	e1a05007 	mov	r5, r7
    a420:	e1a04000 	mov	r4, r0
    a424:	e1a01006 	mov	r1, r6
    a428:	e1a00004 	mov	r0, r4
    a42c:	eb0008e7 	bl	c7d0 <__aeabi_uidivmod>
    a430:	e6ef3071 	uxtb	r3, r1
    a434:	e3530009 	cmp	r3, #9, 0
    a438:	9affffe7 	bls	a3dc <_ntoa_long+0x44>
    a43c:	e3180020 	tst	r8, #32, 0
    a440:	0a000005 	beq	a45c <_ntoa_long+0xc4>
    a444:	e3a01041 	mov	r1, #65, 0	; 0x41
    a448:	e0811003 	add	r1, r1, r3
    a44c:	e6ef1071 	uxtb	r1, r1
    a450:	e241100a 	sub	r1, r1, #10, 0
    a454:	e6ef1071 	uxtb	r1, r1
    a458:	eaffffe1 	b	a3e4 <_ntoa_long+0x4c>
    a45c:	e3a01061 	mov	r1, #97, 0	; 0x61
    a460:	eafffff8 	b	a448 <_ntoa_long+0xb0>
    a464:	e1a07004 	mov	r7, r4
    a468:	e58d8018 	str	r8, [sp, #24]
    a46c:	e59d3080 	ldr	r3, [sp, #128]	; 0x80
    a470:	e58d3014 	str	r3, [sp, #20]
    a474:	e59d307c 	ldr	r3, [sp, #124]	; 0x7c
    a478:	e58d3010 	str	r3, [sp, #16]
    a47c:	e58d600c 	str	r6, [sp, #12]
    a480:	e5dd3074 	ldrb	r3, [sp, #116]	; 0x74
    a484:	e58d3008 	str	r3, [sp, #8]
    a488:	e58d7004 	str	r7, [sp, #4]
    a48c:	e28d3028 	add	r3, sp, #40, 0	; 0x28
    a490:	e58d3000 	str	r3, [sp]
    a494:	e1a0300b 	mov	r3, fp
    a498:	e59d2024 	ldr	r2, [sp, #36]	; 0x24
    a49c:	e1a0100a 	mov	r1, sl
    a4a0:	e1a00009 	mov	r0, r9
    a4a4:	ebffff4f 	bl	a1e8 <_ntoa_format>
    a4a8:	e28dd04c 	add	sp, sp, #76, 0	; 0x4c
    a4ac:	e8bd8ff0 	pop	{r4, r5, r6, r7, r8, r9, sl, fp, pc}

0000a4b0 <_ntoa_long_long>:
    a4b0:	e92d4ff0 	push	{r4, r5, r6, r7, r8, r9, sl, fp, lr}
    a4b4:	e24dd054 	sub	sp, sp, #84, 0	; 0x54
    a4b8:	e58d0024 	str	r0, [sp, #36]	; 0x24
    a4bc:	e58d1028 	str	r1, [sp, #40]	; 0x28
    a4c0:	e58d202c 	str	r2, [sp, #44]	; 0x2c
    a4c4:	e1a0b003 	mov	fp, r3
    a4c8:	e1cd47d8 	ldrd	r4, [sp, #120]	; 0x78
    a4cc:	e1cd88d8 	ldrd	r8, [sp, #136]	; 0x88
    a4d0:	e59da098 	ldr	sl, [sp, #152]	; 0x98
    a4d4:	e1943005 	orrs	r3, r4, r5
    a4d8:	03caa010 	biceq	sl, sl, #16, 0
    a4dc:	e21a6b01 	ands	r6, sl, #1024	; 0x400
    a4e0:	0a00001a 	beq	a550 <_ntoa_long_long+0xa0>
    a4e4:	e1943005 	orrs	r3, r4, r5
    a4e8:	0a00002a 	beq	a598 <_ntoa_long_long+0xe8>
    a4ec:	e3a06000 	mov	r6, #0, 0
    a4f0:	ea000016 	b	a550 <_ntoa_long_long+0xa0>
    a4f4:	e2832030 	add	r2, r3, #48, 0	; 0x30
    a4f8:	e6ef2072 	uxtb	r2, r2
    a4fc:	e2867001 	add	r7, r6, #1, 0
    a500:	e28d3050 	add	r3, sp, #80, 0	; 0x50
    a504:	e0836006 	add	r6, r3, r6
    a508:	e5462020 	strb	r2, [r6, #-32]	; 0xffffffe0
    a50c:	e1a02008 	mov	r2, r8
    a510:	e1a03009 	mov	r3, r9
    a514:	e1a00004 	mov	r0, r4
    a518:	e1a01005 	mov	r1, r5
    a51c:	eb000d4c 	bl	da54 <__aeabi_uldivmod>
    a520:	e1550009 	cmp	r5, r9
    a524:	01540008 	cmpeq	r4, r8
    a528:	23a03001 	movcs	r3, #1, 0
    a52c:	33a03000 	movcc	r3, #0, 0
    a530:	e357001f 	cmp	r7, #31, 0
    a534:	83a03000 	movhi	r3, #0, 0
    a538:	92033001 	andls	r3, r3, #1, 0
    a53c:	e3530000 	cmp	r3, #0, 0
    a540:	0a000015 	beq	a59c <_ntoa_long_long+0xec>
    a544:	e1a06007 	mov	r6, r7
    a548:	e1a04000 	mov	r4, r0
    a54c:	e1a05001 	mov	r5, r1
    a550:	e1a02008 	mov	r2, r8
    a554:	e1a03009 	mov	r3, r9
    a558:	e1a00004 	mov	r0, r4
    a55c:	e1a01005 	mov	r1, r5
    a560:	eb000d3b 	bl	da54 <__aeabi_uldivmod>
    a564:	e6ef3072 	uxtb	r3, r2
    a568:	e3530009 	cmp	r3, #9, 0
    a56c:	9affffe0 	bls	a4f4 <_ntoa_long_long+0x44>
    a570:	e31a0020 	tst	sl, #32, 0
    a574:	0a000005 	beq	a590 <_ntoa_long_long+0xe0>
    a578:	e3a02041 	mov	r2, #65, 0	; 0x41
    a57c:	e0822003 	add	r2, r2, r3
    a580:	e6ef2072 	uxtb	r2, r2
    a584:	e242200a 	sub	r2, r2, #10, 0
    a588:	e6ef2072 	uxtb	r2, r2
    a58c:	eaffffda 	b	a4fc <_ntoa_long_long+0x4c>
    a590:	e3a02061 	mov	r2, #97, 0	; 0x61
    a594:	eafffff8 	b	a57c <_ntoa_long_long+0xcc>
    a598:	e3a07000 	mov	r7, #0, 0
    a59c:	e58da018 	str	sl, [sp, #24]
    a5a0:	e59d3094 	ldr	r3, [sp, #148]	; 0x94
    a5a4:	e58d3014 	str	r3, [sp, #20]
    a5a8:	e59d3090 	ldr	r3, [sp, #144]	; 0x90
    a5ac:	e58d3010 	str	r3, [sp, #16]
    a5b0:	e58d800c 	str	r8, [sp, #12]
    a5b4:	e5dd3080 	ldrb	r3, [sp, #128]	; 0x80
    a5b8:	e58d3008 	str	r3, [sp, #8]
    a5bc:	e58d7004 	str	r7, [sp, #4]
    a5c0:	e28d3030 	add	r3, sp, #48, 0	; 0x30
    a5c4:	e58d3000 	str	r3, [sp]
    a5c8:	e1a0300b 	mov	r3, fp
    a5cc:	e59d202c 	ldr	r2, [sp, #44]	; 0x2c
    a5d0:	e59d1028 	ldr	r1, [sp, #40]	; 0x28
    a5d4:	e59d0024 	ldr	r0, [sp, #36]	; 0x24
    a5d8:	ebffff02 	bl	a1e8 <_ntoa_format>
    a5dc:	e28dd054 	add	sp, sp, #84, 0	; 0x54
    a5e0:	e8bd8ff0 	pop	{r4, r5, r6, r7, r8, r9, sl, fp, pc}

0000a5e4 <_etoa>:
    a5e4:	e92d4ff0 	push	{r4, r5, r6, r7, r8, r9, sl, fp, lr}
    a5e8:	e24dd04c 	sub	sp, sp, #76, 0	; 0x4c
    a5ec:	e1a0a000 	mov	sl, r0
    a5f0:	e1a04001 	mov	r4, r1
    a5f4:	e1a0b002 	mov	fp, r2
    a5f8:	e1a05003 	mov	r5, r3
    a5fc:	e59d6070 	ldr	r6, [sp, #112]	; 0x70
    a600:	e58d601c 	str	r6, [sp, #28]
    a604:	e59d7074 	ldr	r7, [sp, #116]	; 0x74
    a608:	e58d7020 	str	r7, [sp, #32]
    a60c:	e1a02006 	mov	r2, r6
    a610:	e1a03007 	mov	r3, r7
    a614:	e1a00006 	mov	r0, r6
    a618:	e1a01007 	mov	r1, r7
    a61c:	eb000ad5 	bl	d178 <__aeabi_dcmpeq>
    a620:	e3500000 	cmp	r0, #0, 0
    a624:	0a00011b 	beq	aa98 <_etoa+0x4b4>
    a628:	e3e02000 	mvn	r2, #0, 0
    a62c:	e59f3514 	ldr	r3, [pc, #1300]	; ab48 <_etoa+0x564>
    a630:	e1a00006 	mov	r0, r6
    a634:	e1a01007 	mov	r1, r7
    a638:	eb000ae6 	bl	d1d8 <__aeabi_dcmpgt>
    a63c:	e3500000 	cmp	r0, #0, 0
    a640:	1a000114 	bne	aa98 <_etoa+0x4b4>
    a644:	e3e02000 	mvn	r2, #0, 0
    a648:	e3e03601 	mvn	r3, #1048576	; 0x100000
    a64c:	e1a00006 	mov	r0, r6
    a650:	e1a01007 	mov	r1, r7
    a654:	eb000acd 	bl	d190 <__aeabi_dcmplt>
    a658:	e3500000 	cmp	r0, #0, 0
    a65c:	1a00010d 	bne	aa98 <_etoa+0x4b4>
    a660:	e3a02000 	mov	r2, #0, 0
    a664:	e3a03000 	mov	r3, #0, 0
    a668:	e59d601c 	ldr	r6, [sp, #28]
    a66c:	e1a00006 	mov	r0, r6
    a670:	e59d7020 	ldr	r7, [sp, #32]
    a674:	e1a01007 	mov	r1, r7
    a678:	eb000ac4 	bl	d190 <__aeabi_dcmplt>
    a67c:	e3500000 	cmp	r0, #0, 0
    a680:	1a000114 	bne	aad8 <_etoa+0x4f4>
    a684:	e59d201c 	ldr	r2, [sp, #28]
    a688:	e59d3020 	ldr	r3, [sp, #32]
    a68c:	e58d2024 	str	r2, [sp, #36]	; 0x24
    a690:	e58d3040 	str	r3, [sp, #64]	; 0x40
    a694:	e59d3080 	ldr	r3, [sp, #128]	; 0x80
    a698:	e2133b01 	ands	r3, r3, #1024	; 0x400
    a69c:	e58d3044 	str	r3, [sp, #68]	; 0x44
    a6a0:	03a03006 	moveq	r3, #6, 0
    a6a4:	058d3078 	streq	r3, [sp, #120]	; 0x78
    a6a8:	e59d2024 	ldr	r2, [sp, #36]	; 0x24
    a6ac:	e59d3040 	ldr	r3, [sp, #64]	; 0x40
    a6b0:	e1a00a23 	lsr	r0, r3, #20
    a6b4:	e1a00a80 	lsl	r0, r0, #21
    a6b8:	e1a00aa0 	lsr	r0, r0, #21
    a6bc:	e3c334ff 	bic	r3, r3, #-16777216	; 0xff000000
    a6c0:	e3c3360f 	bic	r3, r3, #15728640	; 0xf00000
    a6c4:	e1a06002 	mov	r6, r2
    a6c8:	e38375ff 	orr	r7, r3, #1069547520	; 0x3fc00000
    a6cc:	e3877603 	orr	r7, r7, #3145728	; 0x300000
    a6d0:	e2400fff 	sub	r0, r0, #1020	; 0x3fc
    a6d4:	e2400003 	sub	r0, r0, #3, 0
    a6d8:	eb000915 	bl	cb34 <__aeabi_i2d>
    a6dc:	e59f2468 	ldr	r2, [pc, #1128]	; ab4c <_etoa+0x568>
    a6e0:	e59f3468 	ldr	r3, [pc, #1128]	; ab50 <_etoa+0x56c>
    a6e4:	eb000949 	bl	cc10 <__aeabi_dmul>
    a6e8:	e59f2464 	ldr	r2, [pc, #1124]	; ab54 <_etoa+0x570>
    a6ec:	e59f3464 	ldr	r3, [pc, #1124]	; ab58 <_etoa+0x574>
    a6f0:	eb000842 	bl	c800 <__adddf3>
    a6f4:	e1a08000 	mov	r8, r0
    a6f8:	e1a09001 	mov	r9, r1
    a6fc:	e3a02000 	mov	r2, #0, 0
    a700:	e59f3454 	ldr	r3, [pc, #1108]	; ab5c <_etoa+0x578>
    a704:	e1a00006 	mov	r0, r6
    a708:	e1a01007 	mov	r1, r7
    a70c:	eb00083a 	bl	c7fc <__aeabi_dsub>
    a710:	e59f2448 	ldr	r2, [pc, #1096]	; ab60 <_etoa+0x57c>
    a714:	e59f3448 	ldr	r3, [pc, #1096]	; ab64 <_etoa+0x580>
    a718:	eb00093c 	bl	cc10 <__aeabi_dmul>
    a71c:	e1a02000 	mov	r2, r0
    a720:	e1a03001 	mov	r3, r1
    a724:	e1a00008 	mov	r0, r8
    a728:	e1a01009 	mov	r1, r9
    a72c:	eb000833 	bl	c800 <__adddf3>
    a730:	eb000aae 	bl	d1f0 <__aeabi_d2iz>
    a734:	e1a07000 	mov	r7, r0
    a738:	eb0008fd 	bl	cb34 <__aeabi_i2d>
    a73c:	e1a08000 	mov	r8, r0
    a740:	e1a09001 	mov	r9, r1
    a744:	e59f241c 	ldr	r2, [pc, #1052]	; ab68 <_etoa+0x584>
    a748:	e59f341c 	ldr	r3, [pc, #1052]	; ab6c <_etoa+0x588>
    a74c:	eb00092f 	bl	cc10 <__aeabi_dmul>
    a750:	e3a02000 	mov	r2, #0, 0
    a754:	e59f3414 	ldr	r3, [pc, #1044]	; ab70 <_etoa+0x58c>
    a758:	eb000828 	bl	c800 <__adddf3>
    a75c:	eb000aa3 	bl	d1f0 <__aeabi_d2iz>
    a760:	e1a06000 	mov	r6, r0
    a764:	e59f2408 	ldr	r2, [pc, #1032]	; ab74 <_etoa+0x590>
    a768:	e59f3408 	ldr	r3, [pc, #1032]	; ab78 <_etoa+0x594>
    a76c:	e1a00008 	mov	r0, r8
    a770:	e1a01009 	mov	r1, r9
    a774:	eb000925 	bl	cc10 <__aeabi_dmul>
    a778:	e1a08000 	mov	r8, r0
    a77c:	e1a09001 	mov	r9, r1
    a780:	e1a00006 	mov	r0, r6
    a784:	eb0008ea 	bl	cb34 <__aeabi_i2d>
    a788:	e59f23ec 	ldr	r2, [pc, #1004]	; ab7c <_etoa+0x598>
    a78c:	e59f33ec 	ldr	r3, [pc, #1004]	; ab80 <_etoa+0x59c>
    a790:	eb00091e 	bl	cc10 <__aeabi_dmul>
    a794:	e1a02000 	mov	r2, r0
    a798:	e1a03001 	mov	r3, r1
    a79c:	e1a00008 	mov	r0, r8
    a7a0:	e1a01009 	mov	r1, r9
    a7a4:	eb000814 	bl	c7fc <__aeabi_dsub>
    a7a8:	e1a08000 	mov	r8, r0
    a7ac:	e1a09001 	mov	r9, r1
    a7b0:	e1a02000 	mov	r2, r0
    a7b4:	e1a03001 	mov	r3, r1
    a7b8:	eb000914 	bl	cc10 <__aeabi_dmul>
    a7bc:	e1cd03f0 	strd	r0, [sp, #48]	; 0x30
    a7c0:	e2866fff 	add	r6, r6, #1020	; 0x3fc
    a7c4:	e2866003 	add	r6, r6, #3, 0
    a7c8:	e1a01a06 	lsl	r1, r6, #20
    a7cc:	e58d102c 	str	r1, [sp, #44]	; 0x2c
    a7d0:	e3a01000 	mov	r1, #0, 0
    a7d4:	e58d1028 	str	r1, [sp, #40]	; 0x28
    a7d8:	e1a02008 	mov	r2, r8
    a7dc:	e1a03009 	mov	r3, r9
    a7e0:	e1a00008 	mov	r0, r8
    a7e4:	e1a01009 	mov	r1, r9
    a7e8:	eb000804 	bl	c800 <__adddf3>
    a7ec:	e1cd03f8 	strd	r0, [sp, #56]	; 0x38
    a7f0:	e1a02008 	mov	r2, r8
    a7f4:	e1a03009 	mov	r3, r9
    a7f8:	e3a00000 	mov	r0, #0, 0
    a7fc:	e3a01101 	mov	r1, #1073741824	; 0x40000000
    a800:	eb0007fd 	bl	c7fc <__aeabi_dsub>
    a804:	e1a08000 	mov	r8, r0
    a808:	e1a09001 	mov	r9, r1
    a80c:	e3a02000 	mov	r2, #0, 0
    a810:	e59f336c 	ldr	r3, [pc, #876]	; ab84 <_etoa+0x5a0>
    a814:	e1cd03d0 	ldrd	r0, [sp, #48]	; 0x30
    a818:	eb0009a0 	bl	cea0 <__aeabi_ddiv>
    a81c:	e3a02000 	mov	r2, #0, 0
    a820:	e59f3360 	ldr	r3, [pc, #864]	; ab88 <_etoa+0x5a4>
    a824:	eb0007f5 	bl	c800 <__adddf3>
    a828:	e1a02000 	mov	r2, r0
    a82c:	e1a03001 	mov	r3, r1
    a830:	e1cd03d0 	ldrd	r0, [sp, #48]	; 0x30
    a834:	eb000999 	bl	cea0 <__aeabi_ddiv>
    a838:	e3a02000 	mov	r2, #0, 0
    a83c:	e59f3348 	ldr	r3, [pc, #840]	; ab8c <_etoa+0x5a8>
    a840:	eb0007ee 	bl	c800 <__adddf3>
    a844:	e1a02000 	mov	r2, r0
    a848:	e1a03001 	mov	r3, r1
    a84c:	e1cd03d0 	ldrd	r0, [sp, #48]	; 0x30
    a850:	eb000992 	bl	cea0 <__aeabi_ddiv>
    a854:	e1a02000 	mov	r2, r0
    a858:	e1a03001 	mov	r3, r1
    a85c:	e1a00008 	mov	r0, r8
    a860:	e1a01009 	mov	r1, r9
    a864:	eb0007e5 	bl	c800 <__adddf3>
    a868:	e1a02000 	mov	r2, r0
    a86c:	e1a03001 	mov	r3, r1
    a870:	e1cd03d8 	ldrd	r0, [sp, #56]	; 0x38
    a874:	eb000989 	bl	cea0 <__aeabi_ddiv>
    a878:	e3a02000 	mov	r2, #0, 0
    a87c:	e59f330c 	ldr	r3, [pc, #780]	; ab90 <_etoa+0x5ac>
    a880:	eb0007de 	bl	c800 <__adddf3>
    a884:	e1cd22d8 	ldrd	r2, [sp, #40]	; 0x28
    a888:	eb0008e0 	bl	cc10 <__aeabi_dmul>
    a88c:	e1a08000 	mov	r8, r0
    a890:	e1a09001 	mov	r9, r1
    a894:	e1cd82f8 	strd	r8, [sp, #40]	; 0x28
    a898:	e59d2024 	ldr	r2, [sp, #36]	; 0x24
    a89c:	e59d3040 	ldr	r3, [sp, #64]	; 0x40
    a8a0:	eb000a4c 	bl	d1d8 <__aeabi_dcmpgt>
    a8a4:	e3500000 	cmp	r0, #0, 0
    a8a8:	0a000006 	beq	a8c8 <_etoa+0x2e4>
    a8ac:	e2477001 	sub	r7, r7, #1, 0
    a8b0:	e3a02000 	mov	r2, #0, 0
    a8b4:	e59f32cc 	ldr	r3, [pc, #716]	; ab88 <_etoa+0x5a4>
    a8b8:	e1a00008 	mov	r0, r8
    a8bc:	e1a01009 	mov	r1, r9
    a8c0:	eb000976 	bl	cea0 <__aeabi_ddiv>
    a8c4:	e1cd02f8 	strd	r0, [sp, #40]	; 0x28
    a8c8:	e2873063 	add	r3, r7, #99, 0	; 0x63
    a8cc:	e35300c6 	cmp	r3, #198, 0	; 0xc6
    a8d0:	8a000084 	bhi	aae8 <_etoa+0x504>
    a8d4:	e3a06004 	mov	r6, #4, 0
    a8d8:	e59d3080 	ldr	r3, [sp, #128]	; 0x80
    a8dc:	e3130b02 	tst	r3, #2048	; 0x800
    a8e0:	0a00001a 	beq	a950 <_etoa+0x36c>
    a8e4:	e59f22a8 	ldr	r2, [pc, #680]	; ab94 <_etoa+0x5b0>
    a8e8:	e59f32a8 	ldr	r3, [pc, #680]	; ab98 <_etoa+0x5b4>
    a8ec:	e59d9024 	ldr	r9, [sp, #36]	; 0x24
    a8f0:	e1a00009 	mov	r0, r9
    a8f4:	e59d8040 	ldr	r8, [sp, #64]	; 0x40
    a8f8:	e1a01008 	mov	r1, r8
    a8fc:	eb000a2f 	bl	d1c0 <__aeabi_dcmpge>
    a900:	e3500000 	cmp	r0, #0, 0
    a904:	0a00007c 	beq	aafc <_etoa+0x518>
    a908:	e3a02000 	mov	r2, #0, 0
    a90c:	e59f3288 	ldr	r3, [pc, #648]	; ab9c <_etoa+0x5b8>
    a910:	e1a00009 	mov	r0, r9
    a914:	e1a01008 	mov	r1, r8
    a918:	eb000a1c 	bl	d190 <__aeabi_dcmplt>
    a91c:	e3500000 	cmp	r0, #0, 0
    a920:	0a000075 	beq	aafc <_etoa+0x518>
    a924:	e59d3078 	ldr	r3, [sp, #120]	; 0x78
    a928:	e1530007 	cmp	r3, r7
    a92c:	da00006f 	ble	aaf0 <_etoa+0x50c>
    a930:	e0437007 	sub	r7, r3, r7
    a934:	e2473001 	sub	r3, r7, #1, 0
    a938:	e58d3078 	str	r3, [sp, #120]	; 0x78
    a93c:	e59d3080 	ldr	r3, [sp, #128]	; 0x80
    a940:	e3833b01 	orr	r3, r3, #1024	; 0x400
    a944:	e58d3080 	str	r3, [sp, #128]	; 0x80
    a948:	e3a06000 	mov	r6, #0, 0
    a94c:	e1a07006 	mov	r7, r6
    a950:	e59d307c 	ldr	r3, [sp, #124]	; 0x7c
    a954:	e1560003 	cmp	r6, r3
    a958:	2a000070 	bcs	ab20 <_etoa+0x53c>
    a95c:	e0438006 	sub	r8, r3, r6
    a960:	e59d3080 	ldr	r3, [sp, #128]	; 0x80
    a964:	e2139002 	ands	r9, r3, #2, 0
    a968:	0a000001 	beq	a974 <_etoa+0x390>
    a96c:	e3560000 	cmp	r6, #0, 0
    a970:	13a08000 	movne	r8, #0, 0
    a974:	e3570000 	cmp	r7, #0, 0
    a978:	0a000005 	beq	a994 <_etoa+0x3b0>
    a97c:	e1cd22d8 	ldrd	r2, [sp, #40]	; 0x28
    a980:	e59d0024 	ldr	r0, [sp, #36]	; 0x24
    a984:	e59d1040 	ldr	r1, [sp, #64]	; 0x40
    a988:	eb000944 	bl	cea0 <__aeabi_ddiv>
    a98c:	e58d0024 	str	r0, [sp, #36]	; 0x24
    a990:	e58d1040 	str	r1, [sp, #64]	; 0x40
    a994:	e3a02000 	mov	r2, #0, 0
    a998:	e3a03000 	mov	r3, #0, 0
    a99c:	e59d001c 	ldr	r0, [sp, #28]
    a9a0:	e59d1020 	ldr	r1, [sp, #32]
    a9a4:	eb0009f9 	bl	d190 <__aeabi_dcmplt>
    a9a8:	e3500000 	cmp	r0, #0, 0
    a9ac:	1a00005d 	bne	ab28 <_etoa+0x544>
    a9b0:	e59d3080 	ldr	r3, [sp, #128]	; 0x80
    a9b4:	e3c33b02 	bic	r3, r3, #2048	; 0x800
    a9b8:	e58d3010 	str	r3, [sp, #16]
    a9bc:	e58d800c 	str	r8, [sp, #12]
    a9c0:	e59d3078 	ldr	r3, [sp, #120]	; 0x78
    a9c4:	e58d3008 	str	r3, [sp, #8]
    a9c8:	e59d2024 	ldr	r2, [sp, #36]	; 0x24
    a9cc:	e59d3040 	ldr	r3, [sp, #64]	; 0x40
    a9d0:	e1cd20f0 	strd	r2, [sp]
    a9d4:	e1a03005 	mov	r3, r5
    a9d8:	e1a0200b 	mov	r2, fp
    a9dc:	e1a01004 	mov	r1, r4
    a9e0:	e1a0000a 	mov	r0, sl
    a9e4:	eb00006d 	bl	aba0 <_ftoa>
    a9e8:	e3560000 	cmp	r6, #0, 0
    a9ec:	0a000037 	beq	aad0 <_etoa+0x4ec>
    a9f0:	e59d3080 	ldr	r3, [sp, #128]	; 0x80
    a9f4:	e3130020 	tst	r3, #32, 0
    a9f8:	0a00004e 	beq	ab38 <_etoa+0x554>
    a9fc:	e3a0c045 	mov	ip, #69, 0	; 0x45
    aa00:	e2808001 	add	r8, r0, #1, 0
    aa04:	e1a03005 	mov	r3, r5
    aa08:	e1a02000 	mov	r2, r0
    aa0c:	e1a01004 	mov	r1, r4
    aa10:	e1a0000c 	mov	r0, ip
    aa14:	e12fff3a 	blx	sl
    aa18:	e0273fc7 	eor	r3, r7, r7, asr #31
    aa1c:	e0433fc7 	sub	r3, r3, r7, asr #31
    aa20:	e3a02005 	mov	r2, #5, 0
    aa24:	e58d2014 	str	r2, [sp, #20]
    aa28:	e2466001 	sub	r6, r6, #1, 0
    aa2c:	e58d6010 	str	r6, [sp, #16]
    aa30:	e3a02000 	mov	r2, #0, 0
    aa34:	e58d200c 	str	r2, [sp, #12]
    aa38:	e3a0200a 	mov	r2, #10, 0
    aa3c:	e58d2008 	str	r2, [sp, #8]
    aa40:	e1a07fa7 	lsr	r7, r7, #31
    aa44:	e58d7004 	str	r7, [sp, #4]
    aa48:	e58d3000 	str	r3, [sp]
    aa4c:	e1a03005 	mov	r3, r5
    aa50:	e1a02008 	mov	r2, r8
    aa54:	e1a01004 	mov	r1, r4
    aa58:	e1a0000a 	mov	r0, sl
    aa5c:	ebfffe4d 	bl	a398 <_ntoa_long>
    aa60:	e3590000 	cmp	r9, #0, 0
    aa64:	0a000019 	beq	aad0 <_etoa+0x4ec>
    aa68:	e1a02000 	mov	r2, r0
    aa6c:	e59d707c 	ldr	r7, [sp, #124]	; 0x7c
    aa70:	e042300b 	sub	r3, r2, fp
    aa74:	e1530007 	cmp	r3, r7
    aa78:	2a000030 	bcs	ab40 <_etoa+0x55c>
    aa7c:	e2826001 	add	r6, r2, #1, 0
    aa80:	e1a03005 	mov	r3, r5
    aa84:	e1a01004 	mov	r1, r4
    aa88:	e3a00020 	mov	r0, #32, 0
    aa8c:	e12fff3a 	blx	sl
    aa90:	e1a02006 	mov	r2, r6
    aa94:	eafffff5 	b	aa70 <_etoa+0x48c>
    aa98:	e59d3080 	ldr	r3, [sp, #128]	; 0x80
    aa9c:	e58d3010 	str	r3, [sp, #16]
    aaa0:	e59d307c 	ldr	r3, [sp, #124]	; 0x7c
    aaa4:	e58d300c 	str	r3, [sp, #12]
    aaa8:	e59d3078 	ldr	r3, [sp, #120]	; 0x78
    aaac:	e58d3008 	str	r3, [sp, #8]
    aab0:	e59d201c 	ldr	r2, [sp, #28]
    aab4:	e59d3020 	ldr	r3, [sp, #32]
    aab8:	e1cd20f0 	strd	r2, [sp]
    aabc:	e1a03005 	mov	r3, r5
    aac0:	e1a0200b 	mov	r2, fp
    aac4:	e1a01004 	mov	r1, r4
    aac8:	e1a0000a 	mov	r0, sl
    aacc:	eb000033 	bl	aba0 <_ftoa>
    aad0:	e28dd04c 	add	sp, sp, #76, 0	; 0x4c
    aad4:	e8bd8ff0 	pop	{r4, r5, r6, r7, r8, r9, sl, fp, pc}
    aad8:	e58d6024 	str	r6, [sp, #36]	; 0x24
    aadc:	e2873102 	add	r3, r7, #-2147483648	; 0x80000000
    aae0:	e58d3040 	str	r3, [sp, #64]	; 0x40
    aae4:	eafffeea 	b	a694 <_etoa+0xb0>
    aae8:	e3a06005 	mov	r6, #5, 0
    aaec:	eaffff79 	b	a8d8 <_etoa+0x2f4>
    aaf0:	e3a03000 	mov	r3, #0, 0
    aaf4:	e58d3078 	str	r3, [sp, #120]	; 0x78
    aaf8:	eaffff8f 	b	a93c <_etoa+0x358>
    aafc:	e59d3078 	ldr	r3, [sp, #120]	; 0x78
    ab00:	e3530000 	cmp	r3, #0, 0
    ab04:	0affff91 	beq	a950 <_etoa+0x36c>
    ab08:	e59d3044 	ldr	r3, [sp, #68]	; 0x44
    ab0c:	e3530000 	cmp	r3, #0, 0
    ab10:	159d3078 	ldrne	r3, [sp, #120]	; 0x78
    ab14:	12433001 	subne	r3, r3, #1, 0
    ab18:	158d3078 	strne	r3, [sp, #120]	; 0x78
    ab1c:	eaffff8b 	b	a950 <_etoa+0x36c>
    ab20:	e3a08000 	mov	r8, #0, 0
    ab24:	eaffff8d 	b	a960 <_etoa+0x37c>
    ab28:	e59d1040 	ldr	r1, [sp, #64]	; 0x40
    ab2c:	e2813102 	add	r3, r1, #-2147483648	; 0x80000000
    ab30:	e58d3040 	str	r3, [sp, #64]	; 0x40
    ab34:	eaffff9d 	b	a9b0 <_etoa+0x3cc>
    ab38:	e3a0c065 	mov	ip, #101, 0	; 0x65
    ab3c:	eaffffaf 	b	aa00 <_etoa+0x41c>
    ab40:	e1a00002 	mov	r0, r2
    ab44:	eaffffe1 	b	aad0 <_etoa+0x4ec>
    ab48:	7fefffff 	.word	0x7fefffff
    ab4c:	509f79fb 	.word	0x509f79fb
    ab50:	3fd34413 	.word	0x3fd34413
    ab54:	8b60c8b3 	.word	0x8b60c8b3
    ab58:	3fc68a28 	.word	0x3fc68a28
    ab5c:	3ff80000 	.word	0x3ff80000
    ab60:	636f4361 	.word	0x636f4361
    ab64:	3fd287a7 	.word	0x3fd287a7
    ab68:	0979a371 	.word	0x0979a371
    ab6c:	400a934f 	.word	0x400a934f
    ab70:	3fe00000 	.word	0x3fe00000
    ab74:	bbb55516 	.word	0xbbb55516
    ab78:	40026bb1 	.word	0x40026bb1
    ab7c:	fefa39ef 	.word	0xfefa39ef
    ab80:	3fe62e42 	.word	0x3fe62e42
    ab84:	402c0000 	.word	0x402c0000
    ab88:	40240000 	.word	0x40240000
    ab8c:	40180000 	.word	0x40180000
    ab90:	3ff00000 	.word	0x3ff00000
    ab94:	eb1c432d 	.word	0xeb1c432d
    ab98:	3f1a36e2 	.word	0x3f1a36e2
    ab9c:	412e8480 	.word	0x412e8480

0000aba0 <_ftoa>:
    aba0:	e92d4ff0 	push	{r4, r5, r6, r7, r8, r9, sl, fp, lr}
    aba4:	e24dd05c 	sub	sp, sp, #92, 0	; 0x5c
    aba8:	e58d001c 	str	r0, [sp, #28]
    abac:	e58d1028 	str	r1, [sp, #40]	; 0x28
    abb0:	e1a0a002 	mov	sl, r2
    abb4:	e1a0b003 	mov	fp, r3
    abb8:	e1cd88d0 	ldrd	r8, [sp, #128]	; 0x80
    abbc:	e59d5088 	ldr	r5, [sp, #136]	; 0x88
    abc0:	e1a02008 	mov	r2, r8
    abc4:	e1a03009 	mov	r3, r9
    abc8:	e1a00008 	mov	r0, r8
    abcc:	e1a01009 	mov	r1, r9
    abd0:	eb000968 	bl	d178 <__aeabi_dcmpeq>
    abd4:	e3500000 	cmp	r0, #0, 0
    abd8:	0a000036 	beq	acb8 <_ftoa+0x118>
    abdc:	e3e02000 	mvn	r2, #0, 0
    abe0:	e3e03601 	mvn	r3, #1048576	; 0x100000
    abe4:	e1a00008 	mov	r0, r8
    abe8:	e1a01009 	mov	r1, r9
    abec:	eb000967 	bl	d190 <__aeabi_dcmplt>
    abf0:	e3500000 	cmp	r0, #0, 0
    abf4:	1a00003d 	bne	acf0 <_ftoa+0x150>
    abf8:	e3e02000 	mvn	r2, #0, 0
    abfc:	e59f3530 	ldr	r3, [pc, #1328]	; b134 <_ftoa+0x594>
    ac00:	e1a00008 	mov	r0, r8
    ac04:	e1a01009 	mov	r1, r9
    ac08:	eb000972 	bl	d1d8 <__aeabi_dcmpgt>
    ac0c:	e3500000 	cmp	r0, #0, 0
    ac10:	1a000044 	bne	ad28 <_ftoa+0x188>
    ac14:	e3a02000 	mov	r2, #0, 0
    ac18:	e59f3518 	ldr	r3, [pc, #1304]	; b138 <_ftoa+0x598>
    ac1c:	e1a00008 	mov	r0, r8
    ac20:	e1a01009 	mov	r1, r9
    ac24:	eb00096b 	bl	d1d8 <__aeabi_dcmpgt>
    ac28:	e3500000 	cmp	r0, #0, 0
    ac2c:	1a000054 	bne	ad84 <_ftoa+0x1e4>
    ac30:	e3a02000 	mov	r2, #0, 0
    ac34:	e59f3500 	ldr	r3, [pc, #1280]	; b13c <_ftoa+0x59c>
    ac38:	e1a00008 	mov	r0, r8
    ac3c:	e1a01009 	mov	r1, r9
    ac40:	eb000952 	bl	d190 <__aeabi_dcmplt>
    ac44:	e3500000 	cmp	r0, #0, 0
    ac48:	1a00004d 	bne	ad84 <_ftoa+0x1e4>
    ac4c:	e3a02000 	mov	r2, #0, 0
    ac50:	e3a03000 	mov	r3, #0, 0
    ac54:	e1a00008 	mov	r0, r8
    ac58:	e1a01009 	mov	r1, r9
    ac5c:	eb00094b 	bl	d190 <__aeabi_dcmplt>
    ac60:	e3500000 	cmp	r0, #0, 0
    ac64:	1a000052 	bne	adb4 <_ftoa+0x214>
    ac68:	e3a03000 	mov	r3, #0, 0
    ac6c:	e58d302c 	str	r3, [sp, #44]	; 0x2c
    ac70:	e59d3090 	ldr	r3, [sp, #144]	; 0x90
    ac74:	e3130b01 	tst	r3, #1024	; 0x400
    ac78:	0a000057 	beq	addc <_ftoa+0x23c>
    ac7c:	e3a04000 	mov	r4, #0, 0
    ac80:	e354001f 	cmp	r4, #31, 0
    ac84:	83a03000 	movhi	r3, #0, 0
    ac88:	93a03001 	movls	r3, #1, 0
    ac8c:	e3550009 	cmp	r5, #9, 0
    ac90:	93a03000 	movls	r3, #0, 0
    ac94:	e3530000 	cmp	r3, #0, 0
    ac98:	0a000051 	beq	ade4 <_ftoa+0x244>
    ac9c:	e28d3058 	add	r3, sp, #88, 0	; 0x58
    aca0:	e0833004 	add	r3, r3, r4
    aca4:	e3a02030 	mov	r2, #48, 0	; 0x30
    aca8:	e5432020 	strb	r2, [r3, #-32]	; 0xffffffe0
    acac:	e2455001 	sub	r5, r5, #1, 0
    acb0:	e2844001 	add	r4, r4, #1, 0
    acb4:	eafffff1 	b	ac80 <_ftoa+0xe0>
    acb8:	e59d3090 	ldr	r3, [sp, #144]	; 0x90
    acbc:	e58d300c 	str	r3, [sp, #12]
    acc0:	e59d308c 	ldr	r3, [sp, #140]	; 0x8c
    acc4:	e58d3008 	str	r3, [sp, #8]
    acc8:	e3a03003 	mov	r3, #3, 0
    accc:	e58d3004 	str	r3, [sp, #4]
    acd0:	e59f3468 	ldr	r3, [pc, #1128]	; b140 <_ftoa+0x5a0>
    acd4:	e58d3000 	str	r3, [sp]
    acd8:	e1a0300b 	mov	r3, fp
    acdc:	e1a0200a 	mov	r2, sl
    ace0:	e59d1028 	ldr	r1, [sp, #40]	; 0x28
    ace4:	e59d001c 	ldr	r0, [sp, #28]
    ace8:	ebfffd0b 	bl	a11c <_out_rev>
    acec:	ea0000e1 	b	b078 <_ftoa+0x4d8>
    acf0:	e59d3090 	ldr	r3, [sp, #144]	; 0x90
    acf4:	e58d300c 	str	r3, [sp, #12]
    acf8:	e59d308c 	ldr	r3, [sp, #140]	; 0x8c
    acfc:	e58d3008 	str	r3, [sp, #8]
    ad00:	e3a03004 	mov	r3, #4, 0
    ad04:	e58d3004 	str	r3, [sp, #4]
    ad08:	e59f3434 	ldr	r3, [pc, #1076]	; b144 <_ftoa+0x5a4>
    ad0c:	e58d3000 	str	r3, [sp]
    ad10:	e1a0300b 	mov	r3, fp
    ad14:	e1a0200a 	mov	r2, sl
    ad18:	e59d1028 	ldr	r1, [sp, #40]	; 0x28
    ad1c:	e59d001c 	ldr	r0, [sp, #28]
    ad20:	ebfffcfd 	bl	a11c <_out_rev>
    ad24:	ea0000d3 	b	b078 <_ftoa+0x4d8>
    ad28:	e59d3090 	ldr	r3, [sp, #144]	; 0x90
    ad2c:	e2132004 	ands	r2, r3, #4, 0
    ad30:	0a00000f 	beq	ad74 <_ftoa+0x1d4>
    ad34:	e59f340c 	ldr	r3, [pc, #1036]	; b148 <_ftoa+0x5a8>
    ad38:	e3520000 	cmp	r2, #0, 0
    ad3c:	0a00000e 	beq	ad7c <_ftoa+0x1dc>
    ad40:	e3a02004 	mov	r2, #4, 0
    ad44:	e59d1090 	ldr	r1, [sp, #144]	; 0x90
    ad48:	e58d100c 	str	r1, [sp, #12]
    ad4c:	e59d108c 	ldr	r1, [sp, #140]	; 0x8c
    ad50:	e58d1008 	str	r1, [sp, #8]
    ad54:	e58d2004 	str	r2, [sp, #4]
    ad58:	e58d3000 	str	r3, [sp]
    ad5c:	e1a0300b 	mov	r3, fp
    ad60:	e1a0200a 	mov	r2, sl
    ad64:	e59d1028 	ldr	r1, [sp, #40]	; 0x28
    ad68:	e59d001c 	ldr	r0, [sp, #28]
    ad6c:	ebfffcea 	bl	a11c <_out_rev>
    ad70:	ea0000c0 	b	b078 <_ftoa+0x4d8>
    ad74:	e59f33d0 	ldr	r3, [pc, #976]	; b14c <_ftoa+0x5ac>
    ad78:	eaffffee 	b	ad38 <_ftoa+0x198>
    ad7c:	e3a02003 	mov	r2, #3, 0
    ad80:	eaffffef 	b	ad44 <_ftoa+0x1a4>
    ad84:	e59d3090 	ldr	r3, [sp, #144]	; 0x90
    ad88:	e58d3010 	str	r3, [sp, #16]
    ad8c:	e59d308c 	ldr	r3, [sp, #140]	; 0x8c
    ad90:	e58d300c 	str	r3, [sp, #12]
    ad94:	e58d5008 	str	r5, [sp, #8]
    ad98:	e1cd80f0 	strd	r8, [sp]
    ad9c:	e1a0300b 	mov	r3, fp
    ada0:	e1a0200a 	mov	r2, sl
    ada4:	e59d1028 	ldr	r1, [sp, #40]	; 0x28
    ada8:	e59d001c 	ldr	r0, [sp, #28]
    adac:	ebfffe0c 	bl	a5e4 <_etoa>
    adb0:	ea0000b0 	b	b078 <_ftoa+0x4d8>
    adb4:	e1a02008 	mov	r2, r8
    adb8:	e1a03009 	mov	r3, r9
    adbc:	e3a00000 	mov	r0, #0, 0
    adc0:	e3a01000 	mov	r1, #0, 0
    adc4:	eb00068c 	bl	c7fc <__aeabi_dsub>
    adc8:	e1a08000 	mov	r8, r0
    adcc:	e1a09001 	mov	r9, r1
    add0:	e3a03001 	mov	r3, #1, 0
    add4:	e58d302c 	str	r3, [sp, #44]	; 0x2c
    add8:	eaffffa4 	b	ac70 <_ftoa+0xd0>
    addc:	e3a05006 	mov	r5, #6, 0
    ade0:	eaffffa5 	b	ac7c <_ftoa+0xdc>
    ade4:	e1a00008 	mov	r0, r8
    ade8:	e1a01009 	mov	r1, r9
    adec:	eb0008ff 	bl	d1f0 <__aeabi_d2iz>
    adf0:	e1a06000 	mov	r6, r0
    adf4:	eb00074e 	bl	cb34 <__aeabi_i2d>
    adf8:	e1a02000 	mov	r2, r0
    adfc:	e1a03001 	mov	r3, r1
    ae00:	e1a00008 	mov	r0, r8
    ae04:	e1a01009 	mov	r1, r9
    ae08:	eb00067b 	bl	c7fc <__aeabi_dsub>
    ae0c:	e1a03185 	lsl	r3, r5, #3
    ae10:	e59f2338 	ldr	r2, [pc, #824]	; b150 <_ftoa+0x5b0>
    ae14:	e0833002 	add	r3, r3, r2
    ae18:	e1c320d0 	ldrd	r2, [r3]
    ae1c:	e1cd23f0 	strd	r2, [sp, #48]	; 0x30
    ae20:	eb00077a 	bl	cc10 <__aeabi_dmul>
    ae24:	e1a02000 	mov	r2, r0
    ae28:	e1a03001 	mov	r3, r1
    ae2c:	e1cd22f0 	strd	r2, [sp, #32]
    ae30:	eb000905 	bl	d24c <__aeabi_d2uiz>
    ae34:	e1a07000 	mov	r7, r0
    ae38:	eb000734 	bl	cb10 <__aeabi_ui2d>
    ae3c:	e1a02000 	mov	r2, r0
    ae40:	e1a03001 	mov	r3, r1
    ae44:	e1cd02d0 	ldrd	r0, [sp, #32]
    ae48:	eb00066b 	bl	c7fc <__aeabi_dsub>
    ae4c:	e1a02000 	mov	r2, r0
    ae50:	e1a03001 	mov	r3, r1
    ae54:	e1cd22f0 	strd	r2, [sp, #32]
    ae58:	e3a02000 	mov	r2, #0, 0
    ae5c:	e59f32f0 	ldr	r3, [pc, #752]	; b154 <_ftoa+0x5b4>
    ae60:	eb0008dc 	bl	d1d8 <__aeabi_dcmpgt>
    ae64:	e3500000 	cmp	r0, #0, 0
    ae68:	0a000023 	beq	aefc <_ftoa+0x35c>
    ae6c:	e2877001 	add	r7, r7, #1, 0
    ae70:	e1a00007 	mov	r0, r7
    ae74:	eb000725 	bl	cb10 <__aeabi_ui2d>
    ae78:	e1a02000 	mov	r2, r0
    ae7c:	e1a03001 	mov	r3, r1
    ae80:	e1cd03d0 	ldrd	r0, [sp, #48]	; 0x30
    ae84:	eb0008c7 	bl	d1a8 <__aeabi_dcmple>
    ae88:	e3500000 	cmp	r0, #0, 0
    ae8c:	12866001 	addne	r6, r6, #1, 0
    ae90:	13a07000 	movne	r7, #0, 0
    ae94:	e3550000 	cmp	r5, #0, 0
    ae98:	1a000023 	bne	af2c <_ftoa+0x38c>
    ae9c:	e1a00006 	mov	r0, r6
    aea0:	eb000723 	bl	cb34 <__aeabi_i2d>
    aea4:	e1a02000 	mov	r2, r0
    aea8:	e1a03001 	mov	r3, r1
    aeac:	e1a00008 	mov	r0, r8
    aeb0:	e1a01009 	mov	r1, r9
    aeb4:	eb000650 	bl	c7fc <__aeabi_dsub>
    aeb8:	e1a08000 	mov	r8, r0
    aebc:	e1a09001 	mov	r9, r1
    aec0:	e3a02000 	mov	r2, #0, 0
    aec4:	e59f3288 	ldr	r3, [pc, #648]	; b154 <_ftoa+0x5b4>
    aec8:	eb0008b0 	bl	d190 <__aeabi_dcmplt>
    aecc:	e3500000 	cmp	r0, #0, 0
    aed0:	0a000006 	beq	aef0 <_ftoa+0x350>
    aed4:	e3a02000 	mov	r2, #0, 0
    aed8:	e59f3274 	ldr	r3, [pc, #628]	; b154 <_ftoa+0x5b4>
    aedc:	e1a00008 	mov	r0, r8
    aee0:	e1a01009 	mov	r1, r9
    aee4:	eb0008bb 	bl	d1d8 <__aeabi_dcmpgt>
    aee8:	e3500000 	cmp	r0, #0, 0
    aeec:	0a000034 	beq	afc4 <_ftoa+0x424>
    aef0:	e3160001 	tst	r6, #1, 0
    aef4:	12866001 	addne	r6, r6, #1, 0
    aef8:	ea000031 	b	afc4 <_ftoa+0x424>
    aefc:	e3a02000 	mov	r2, #0, 0
    af00:	e59f324c 	ldr	r3, [pc, #588]	; b154 <_ftoa+0x5b4>
    af04:	e1cd02d0 	ldrd	r0, [sp, #32]
    af08:	eb0008a0 	bl	d190 <__aeabi_dcmplt>
    af0c:	e3500000 	cmp	r0, #0, 0
    af10:	1affffdf 	bne	ae94 <_ftoa+0x2f4>
    af14:	e3570000 	cmp	r7, #0, 0
    af18:	0a000001 	beq	af24 <_ftoa+0x384>
    af1c:	e3170001 	tst	r7, #1, 0
    af20:	0affffdb 	beq	ae94 <_ftoa+0x2f4>
    af24:	e2877001 	add	r7, r7, #1, 0
    af28:	eaffffd9 	b	ae94 <_ftoa+0x2f4>
    af2c:	e354001f 	cmp	r4, #31, 0
    af30:	8a000010 	bhi	af78 <_ftoa+0x3d8>
    af34:	e2455001 	sub	r5, r5, #1, 0
    af38:	e59f3218 	ldr	r3, [pc, #536]	; b158 <_ftoa+0x5b8>
    af3c:	e0832793 	umull	r2, r3, r3, r7
    af40:	e1a031a3 	lsr	r3, r3, #3
    af44:	e1a01003 	mov	r1, r3
    af48:	e0833103 	add	r3, r3, r3, lsl #2
    af4c:	e0473083 	sub	r3, r7, r3, lsl #1
    af50:	e2842001 	add	r2, r4, #1, 0
    af54:	e2833030 	add	r3, r3, #48, 0	; 0x30
    af58:	e28d0058 	add	r0, sp, #88, 0	; 0x58
    af5c:	e0804004 	add	r4, r0, r4
    af60:	e5443020 	strb	r3, [r4, #-32]	; 0xffffffe0
    af64:	e3570009 	cmp	r7, #9, 0
    af68:	81a07001 	movhi	r7, r1
    af6c:	81a04002 	movhi	r4, r2
    af70:	8affffed 	bhi	af2c <_ftoa+0x38c>
    af74:	e1a04002 	mov	r4, r2
    af78:	e354001f 	cmp	r4, #31, 0
    af7c:	8a000009 	bhi	afa8 <_ftoa+0x408>
    af80:	e2453001 	sub	r3, r5, #1, 0
    af84:	e3550000 	cmp	r5, #0, 0
    af88:	0a000006 	beq	afa8 <_ftoa+0x408>
    af8c:	e28d2058 	add	r2, sp, #88, 0	; 0x58
    af90:	e0822004 	add	r2, r2, r4
    af94:	e3a01030 	mov	r1, #48, 0	; 0x30
    af98:	e5421020 	strb	r1, [r2, #-32]	; 0xffffffe0
    af9c:	e1a05003 	mov	r5, r3
    afa0:	e2844001 	add	r4, r4, #1, 0
    afa4:	eafffff3 	b	af78 <_ftoa+0x3d8>
    afa8:	e354001f 	cmp	r4, #31, 0
    afac:	8a000004 	bhi	afc4 <_ftoa+0x424>
    afb0:	e28d3058 	add	r3, sp, #88, 0	; 0x58
    afb4:	e0833004 	add	r3, r3, r4
    afb8:	e3a0202e 	mov	r2, #46, 0	; 0x2e
    afbc:	e5432020 	strb	r2, [r3, #-32]	; 0xffffffe0
    afc0:	e2844001 	add	r4, r4, #1, 0
    afc4:	e354001f 	cmp	r4, #31, 0
    afc8:	8a000010 	bhi	b010 <_ftoa+0x470>
    afcc:	e59f3188 	ldr	r3, [pc, #392]	; b15c <_ftoa+0x5bc>
    afd0:	e0c23693 	smull	r3, r2, r3, r6
    afd4:	e1a03fc6 	asr	r3, r6, #31
    afd8:	e0633142 	rsb	r3, r3, r2, asr #2
    afdc:	e1a02003 	mov	r2, r3
    afe0:	e0833103 	add	r3, r3, r3, lsl #2
    afe4:	e0463083 	sub	r3, r6, r3, lsl #1
    afe8:	e2841001 	add	r1, r4, #1, 0
    afec:	e2833030 	add	r3, r3, #48, 0	; 0x30
    aff0:	e28d0058 	add	r0, sp, #88, 0	; 0x58
    aff4:	e0804004 	add	r4, r0, r4
    aff8:	e5443020 	strb	r3, [r4, #-32]	; 0xffffffe0
    affc:	e1a06002 	mov	r6, r2
    b000:	e3520000 	cmp	r2, #0, 0
    b004:	11a04001 	movne	r4, r1
    b008:	1affffed 	bne	afc4 <_ftoa+0x424>
    b00c:	e1a04001 	mov	r4, r1
    b010:	e59d3090 	ldr	r3, [sp, #144]	; 0x90
    b014:	e2033003 	and	r3, r3, #3, 0
    b018:	e3530001 	cmp	r3, #1, 0
    b01c:	0a000017 	beq	b080 <_ftoa+0x4e0>
    b020:	e354001f 	cmp	r4, #31, 0
    b024:	8a000007 	bhi	b048 <_ftoa+0x4a8>
    b028:	e59d302c 	ldr	r3, [sp, #44]	; 0x2c
    b02c:	e3530000 	cmp	r3, #0, 0
    b030:	0a00002d 	beq	b0ec <_ftoa+0x54c>
    b034:	e28d3058 	add	r3, sp, #88, 0	; 0x58
    b038:	e0833004 	add	r3, r3, r4
    b03c:	e3a0202d 	mov	r2, #45, 0	; 0x2d
    b040:	e5432020 	strb	r2, [r3, #-32]	; 0xffffffe0
    b044:	e2844001 	add	r4, r4, #1, 0
    b048:	e59d3090 	ldr	r3, [sp, #144]	; 0x90
    b04c:	e58d300c 	str	r3, [sp, #12]
    b050:	e59d308c 	ldr	r3, [sp, #140]	; 0x8c
    b054:	e58d3008 	str	r3, [sp, #8]
    b058:	e58d4004 	str	r4, [sp, #4]
    b05c:	e28d3038 	add	r3, sp, #56, 0	; 0x38
    b060:	e58d3000 	str	r3, [sp]
    b064:	e1a0300b 	mov	r3, fp
    b068:	e1a0200a 	mov	r2, sl
    b06c:	e59d1028 	ldr	r1, [sp, #40]	; 0x28
    b070:	e59d001c 	ldr	r0, [sp, #28]
    b074:	ebfffc28 	bl	a11c <_out_rev>
    b078:	e28dd05c 	add	sp, sp, #92, 0	; 0x5c
    b07c:	e8bd8ff0 	pop	{r4, r5, r6, r7, r8, r9, sl, fp, pc}
    b080:	e59d308c 	ldr	r3, [sp, #140]	; 0x8c
    b084:	e3530000 	cmp	r3, #0, 0
    b088:	0a000013 	beq	b0dc <_ftoa+0x53c>
    b08c:	e59d302c 	ldr	r3, [sp, #44]	; 0x2c
    b090:	e3530000 	cmp	r3, #0, 0
    b094:	1a000002 	bne	b0a4 <_ftoa+0x504>
    b098:	e59d3090 	ldr	r3, [sp, #144]	; 0x90
    b09c:	e313000c 	tst	r3, #12, 0
    b0a0:	0a00000f 	beq	b0e4 <_ftoa+0x544>
    b0a4:	e59d308c 	ldr	r3, [sp, #140]	; 0x8c
    b0a8:	e2433001 	sub	r3, r3, #1, 0
    b0ac:	e58d308c 	str	r3, [sp, #140]	; 0x8c
    b0b0:	e1a01003 	mov	r1, r3
    b0b4:	ea000004 	b	b0cc <_ftoa+0x52c>
    b0b8:	e28d3058 	add	r3, sp, #88, 0	; 0x58
    b0bc:	e0833004 	add	r3, r3, r4
    b0c0:	e3a02030 	mov	r2, #48, 0	; 0x30
    b0c4:	e5432020 	strb	r2, [r3, #-32]	; 0xffffffe0
    b0c8:	e2844001 	add	r4, r4, #1, 0
    b0cc:	e354001f 	cmp	r4, #31, 0
    b0d0:	91540001 	cmpls	r4, r1
    b0d4:	3afffff7 	bcc	b0b8 <_ftoa+0x518>
    b0d8:	eaffffd0 	b	b020 <_ftoa+0x480>
    b0dc:	e59d108c 	ldr	r1, [sp, #140]	; 0x8c
    b0e0:	eafffff9 	b	b0cc <_ftoa+0x52c>
    b0e4:	e59d108c 	ldr	r1, [sp, #140]	; 0x8c
    b0e8:	eafffff7 	b	b0cc <_ftoa+0x52c>
    b0ec:	e59d3090 	ldr	r3, [sp, #144]	; 0x90
    b0f0:	e3130004 	tst	r3, #4, 0
    b0f4:	0a000005 	beq	b110 <_ftoa+0x570>
    b0f8:	e28d3058 	add	r3, sp, #88, 0	; 0x58
    b0fc:	e0833004 	add	r3, r3, r4
    b100:	e3a0202b 	mov	r2, #43, 0	; 0x2b
    b104:	e5432020 	strb	r2, [r3, #-32]	; 0xffffffe0
    b108:	e2844001 	add	r4, r4, #1, 0
    b10c:	eaffffcd 	b	b048 <_ftoa+0x4a8>
    b110:	e59d3090 	ldr	r3, [sp, #144]	; 0x90
    b114:	e3130008 	tst	r3, #8, 0
    b118:	0affffca 	beq	b048 <_ftoa+0x4a8>
    b11c:	e28d3058 	add	r3, sp, #88, 0	; 0x58
    b120:	e0833004 	add	r3, r3, r4
    b124:	e3a02020 	mov	r2, #32, 0
    b128:	e5432020 	strb	r2, [r3, #-32]	; 0xffffffe0
    b12c:	e2844001 	add	r4, r4, #1, 0
    b130:	eaffffc4 	b	b048 <_ftoa+0x4a8>
    b134:	7fefffff 	.word	0x7fefffff
    b138:	41cdcd65 	.word	0x41cdcd65
    b13c:	c1cdcd65 	.word	0xc1cdcd65
    b140:	0000ea40 	.word	0x0000ea40
    b144:	0000ea44 	.word	0x0000ea44
    b148:	0000ea38 	.word	0x0000ea38
    b14c:	0000ea34 	.word	0x0000ea34
    b150:	0000ea50 	.word	0x0000ea50
    b154:	3fe00000 	.word	0x3fe00000
    b158:	cccccccd 	.word	0xcccccccd
    b15c:	66666667 	.word	0x66666667

0000b160 <_vsnprintf>:
    b160:	e92d4ff0 	push	{r4, r5, r6, r7, r8, r9, sl, fp, lr}
    b164:	e24dd03c 	sub	sp, sp, #60, 0	; 0x3c
    b168:	e1a08000 	mov	r8, r0
    b16c:	e1a06002 	mov	r6, r2
    b170:	e58d3034 	str	r3, [sp, #52]	; 0x34
    b174:	e2517000 	subs	r7, r1, #0, 0
    b178:	0a0002c0 	beq	bc80 <_vsnprintf+0xb20>
    b17c:	e3a04000 	mov	r4, #0, 0
    b180:	e59d3034 	ldr	r3, [sp, #52]	; 0x34
    b184:	e5d30000 	ldrb	r0, [r3]
    b188:	e3500000 	cmp	r0, #0, 0
    b18c:	0a0002bd 	beq	bc88 <_vsnprintf+0xb28>
    b190:	e3500025 	cmp	r0, #37, 0	; 0x25
    b194:	0a000009 	beq	b1c0 <_vsnprintf+0x60>
    b198:	e2845001 	add	r5, r4, #1, 0
    b19c:	e1a03006 	mov	r3, r6
    b1a0:	e1a02004 	mov	r2, r4
    b1a4:	e1a01007 	mov	r1, r7
    b1a8:	e12fff38 	blx	r8
    b1ac:	e59d3034 	ldr	r3, [sp, #52]	; 0x34
    b1b0:	e2833001 	add	r3, r3, #1, 0
    b1b4:	e58d3034 	str	r3, [sp, #52]	; 0x34
    b1b8:	e1a04005 	mov	r4, r5
    b1bc:	eaffffef 	b	b180 <_vsnprintf+0x20>
    b1c0:	e2833001 	add	r3, r3, #1, 0
    b1c4:	e58d3034 	str	r3, [sp, #52]	; 0x34
    b1c8:	e3a05000 	mov	r5, #0, 0
    b1cc:	ea000028 	b	b274 <_vsnprintf+0x114>
    b1d0:	e2413030 	sub	r3, r1, #48, 0	; 0x30
    b1d4:	e6ef3073 	uxtb	r3, r3
    b1d8:	e3530009 	cmp	r3, #9, 0
    b1dc:	9a00004b 	bls	b310 <_vsnprintf+0x1b0>
    b1e0:	e351002a 	cmp	r1, #42, 0	; 0x2a
    b1e4:	0a00004d 	beq	b320 <_vsnprintf+0x1c0>
    b1e8:	e3a03000 	mov	r3, #0, 0
    b1ec:	e58d3028 	str	r3, [sp, #40]	; 0x28
    b1f0:	e59d3034 	ldr	r3, [sp, #52]	; 0x34
    b1f4:	e5d32000 	ldrb	r2, [r3]
    b1f8:	e352002e 	cmp	r2, #46, 0	; 0x2e
    b1fc:	0a000056 	beq	b35c <_vsnprintf+0x1fc>
    b200:	e3a0b000 	mov	fp, #0, 0
    b204:	e59d2034 	ldr	r2, [sp, #52]	; 0x34
    b208:	e5d23000 	ldrb	r3, [r2]
    b20c:	e2433068 	sub	r3, r3, #104, 0	; 0x68
    b210:	e3530012 	cmp	r3, #18, 0
    b214:	979ff103 	ldrls	pc, [pc, r3, lsl #2]
    b218:	ea000081 	b	b424 <_vsnprintf+0x2c4>
    b21c:	0000b3ec 	.word	0x0000b3ec
    b220:	0000b424 	.word	0x0000b424
    b224:	0000b58c 	.word	0x0000b58c
    b228:	0000b424 	.word	0x0000b424
    b22c:	0000b3c0 	.word	0x0000b3c0
    b230:	0000b424 	.word	0x0000b424
    b234:	0000b424 	.word	0x0000b424
    b238:	0000b424 	.word	0x0000b424
    b23c:	0000b424 	.word	0x0000b424
    b240:	0000b424 	.word	0x0000b424
    b244:	0000b424 	.word	0x0000b424
    b248:	0000b424 	.word	0x0000b424
    b24c:	0000b418 	.word	0x0000b418
    b250:	0000b424 	.word	0x0000b424
    b254:	0000b424 	.word	0x0000b424
    b258:	0000b424 	.word	0x0000b424
    b25c:	0000b424 	.word	0x0000b424
    b260:	0000b424 	.word	0x0000b424
    b264:	0000b59c 	.word	0x0000b59c
    b268:	e3855001 	orr	r5, r5, #1, 0
    b26c:	e2833001 	add	r3, r3, #1, 0
    b270:	e58d3034 	str	r3, [sp, #52]	; 0x34
    b274:	e59d3034 	ldr	r3, [sp, #52]	; 0x34
    b278:	e5d31000 	ldrb	r1, [r3]
    b27c:	e2412020 	sub	r2, r1, #32, 0
    b280:	e3520010 	cmp	r2, #16, 0
    b284:	979ff102 	ldrls	pc, [pc, r2, lsl #2]
    b288:	eaffffd0 	b	b1d0 <_vsnprintf+0x70>
    b28c:	0000b2f0 	.word	0x0000b2f0
    b290:	0000b1d0 	.word	0x0000b1d0
    b294:	0000b1d0 	.word	0x0000b1d0
    b298:	0000b300 	.word	0x0000b300
    b29c:	0000b1d0 	.word	0x0000b1d0
    b2a0:	0000b1d0 	.word	0x0000b1d0
    b2a4:	0000b1d0 	.word	0x0000b1d0
    b2a8:	0000b1d0 	.word	0x0000b1d0
    b2ac:	0000b1d0 	.word	0x0000b1d0
    b2b0:	0000b1d0 	.word	0x0000b1d0
    b2b4:	0000b1d0 	.word	0x0000b1d0
    b2b8:	0000b2e0 	.word	0x0000b2e0
    b2bc:	0000b1d0 	.word	0x0000b1d0
    b2c0:	0000b2d0 	.word	0x0000b2d0
    b2c4:	0000b1d0 	.word	0x0000b1d0
    b2c8:	0000b1d0 	.word	0x0000b1d0
    b2cc:	0000b268 	.word	0x0000b268
    b2d0:	e3855002 	orr	r5, r5, #2, 0
    b2d4:	e2833001 	add	r3, r3, #1, 0
    b2d8:	e58d3034 	str	r3, [sp, #52]	; 0x34
    b2dc:	eaffffe4 	b	b274 <_vsnprintf+0x114>
    b2e0:	e3855004 	orr	r5, r5, #4, 0
    b2e4:	e2833001 	add	r3, r3, #1, 0
    b2e8:	e58d3034 	str	r3, [sp, #52]	; 0x34
    b2ec:	eaffffe0 	b	b274 <_vsnprintf+0x114>
    b2f0:	e3855008 	orr	r5, r5, #8, 0
    b2f4:	e2833001 	add	r3, r3, #1, 0
    b2f8:	e58d3034 	str	r3, [sp, #52]	; 0x34
    b2fc:	eaffffdc 	b	b274 <_vsnprintf+0x114>
    b300:	e3855010 	orr	r5, r5, #16, 0
    b304:	e2833001 	add	r3, r3, #1, 0
    b308:	e58d3034 	str	r3, [sp, #52]	; 0x34
    b30c:	eaffffd8 	b	b274 <_vsnprintf+0x114>
    b310:	e28d0034 	add	r0, sp, #52, 0	; 0x34
    b314:	ebfffb71 	bl	a0e0 <_atoi>
    b318:	e58d0028 	str	r0, [sp, #40]	; 0x28
    b31c:	eaffffb3 	b	b1f0 <_vsnprintf+0x90>
    b320:	e59d3060 	ldr	r3, [sp, #96]	; 0x60
    b324:	e2832004 	add	r2, r3, #4, 0
    b328:	e58d2060 	str	r2, [sp, #96]	; 0x60
    b32c:	e5930000 	ldr	r0, [r3]
    b330:	e3500000 	cmp	r0, #0, 0
    b334:	ba000004 	blt	b34c <_vsnprintf+0x1ec>
    b338:	e58d0028 	str	r0, [sp, #40]	; 0x28
    b33c:	e59d3034 	ldr	r3, [sp, #52]	; 0x34
    b340:	e2833001 	add	r3, r3, #1, 0
    b344:	e58d3034 	str	r3, [sp, #52]	; 0x34
    b348:	eaffffa8 	b	b1f0 <_vsnprintf+0x90>
    b34c:	e3855002 	orr	r5, r5, #2, 0
    b350:	e2603000 	rsb	r3, r0, #0, 0
    b354:	e58d3028 	str	r3, [sp, #40]	; 0x28
    b358:	eafffff7 	b	b33c <_vsnprintf+0x1dc>
    b35c:	e3855b01 	orr	r5, r5, #1024	; 0x400
    b360:	e2832001 	add	r2, r3, #1, 0
    b364:	e58d2034 	str	r2, [sp, #52]	; 0x34
    b368:	e5d32001 	ldrb	r2, [r3, #1]
    b36c:	e2423030 	sub	r3, r2, #48, 0	; 0x30
    b370:	e6ef3073 	uxtb	r3, r3
    b374:	e3530009 	cmp	r3, #9, 0
    b378:	9a000003 	bls	b38c <_vsnprintf+0x22c>
    b37c:	e352002a 	cmp	r2, #42, 0	; 0x2a
    b380:	0a000005 	beq	b39c <_vsnprintf+0x23c>
    b384:	e3a0b000 	mov	fp, #0, 0
    b388:	eaffff9d 	b	b204 <_vsnprintf+0xa4>
    b38c:	e28d0034 	add	r0, sp, #52, 0	; 0x34
    b390:	ebfffb52 	bl	a0e0 <_atoi>
    b394:	e1a0b000 	mov	fp, r0
    b398:	eaffff99 	b	b204 <_vsnprintf+0xa4>
    b39c:	e59d3060 	ldr	r3, [sp, #96]	; 0x60
    b3a0:	e2832004 	add	r2, r3, #4, 0
    b3a4:	e58d2060 	str	r2, [sp, #96]	; 0x60
    b3a8:	e593b000 	ldr	fp, [r3]
    b3ac:	e1cbbfcb 	bic	fp, fp, fp, asr #31
    b3b0:	e59d3034 	ldr	r3, [sp, #52]	; 0x34
    b3b4:	e2833001 	add	r3, r3, #1, 0
    b3b8:	e58d3034 	str	r3, [sp, #52]	; 0x34
    b3bc:	eaffff90 	b	b204 <_vsnprintf+0xa4>
    b3c0:	e3851c01 	orr	r1, r5, #256	; 0x100
    b3c4:	e2823001 	add	r3, r2, #1, 0
    b3c8:	e58d3034 	str	r3, [sp, #52]	; 0x34
    b3cc:	e5d22001 	ldrb	r2, [r2, #1]
    b3d0:	e352006c 	cmp	r2, #108, 0	; 0x6c
    b3d4:	11a05001 	movne	r5, r1
    b3d8:	1a000011 	bne	b424 <_vsnprintf+0x2c4>
    b3dc:	e3855c03 	orr	r5, r5, #768	; 0x300
    b3e0:	e2833001 	add	r3, r3, #1, 0
    b3e4:	e58d3034 	str	r3, [sp, #52]	; 0x34
    b3e8:	ea00000d 	b	b424 <_vsnprintf+0x2c4>
    b3ec:	e3851080 	orr	r1, r5, #128, 0	; 0x80
    b3f0:	e2823001 	add	r3, r2, #1, 0
    b3f4:	e58d3034 	str	r3, [sp, #52]	; 0x34
    b3f8:	e5d22001 	ldrb	r2, [r2, #1]
    b3fc:	e3520068 	cmp	r2, #104, 0	; 0x68
    b400:	11a05001 	movne	r5, r1
    b404:	1a000006 	bne	b424 <_vsnprintf+0x2c4>
    b408:	e38550c0 	orr	r5, r5, #192, 0	; 0xc0
    b40c:	e2833001 	add	r3, r3, #1, 0
    b410:	e58d3034 	str	r3, [sp, #52]	; 0x34
    b414:	ea000002 	b	b424 <_vsnprintf+0x2c4>
    b418:	e3855c01 	orr	r5, r5, #256	; 0x100
    b41c:	e2822001 	add	r2, r2, #1, 0
    b420:	e58d2034 	str	r2, [sp, #52]	; 0x34
    b424:	e59d3034 	ldr	r3, [sp, #52]	; 0x34
    b428:	e5d30000 	ldrb	r0, [r3]
    b42c:	e2403025 	sub	r3, r0, #37, 0	; 0x25
    b430:	e3530053 	cmp	r3, #83, 0	; 0x53
    b434:	979ff103 	ldrls	pc, [pc, r3, lsl #2]
    b438:	ea000206 	b	bc58 <_vsnprintf+0xaf8>
    b43c:	0000bc2c 	.word	0x0000bc2c
    b440:	0000bc58 	.word	0x0000bc58
    b444:	0000bc58 	.word	0x0000bc58
    b448:	0000bc58 	.word	0x0000bc58
    b44c:	0000bc58 	.word	0x0000bc58
    b450:	0000bc58 	.word	0x0000bc58
    b454:	0000bc58 	.word	0x0000bc58
    b458:	0000bc58 	.word	0x0000bc58
    b45c:	0000bc58 	.word	0x0000bc58
    b460:	0000bc58 	.word	0x0000bc58
    b464:	0000bc58 	.word	0x0000bc58
    b468:	0000bc58 	.word	0x0000bc58
    b46c:	0000bc58 	.word	0x0000bc58
    b470:	0000bc58 	.word	0x0000bc58
    b474:	0000bc58 	.word	0x0000bc58
    b478:	0000bc58 	.word	0x0000bc58
    b47c:	0000bc58 	.word	0x0000bc58
    b480:	0000bc58 	.word	0x0000bc58
    b484:	0000bc58 	.word	0x0000bc58
    b488:	0000bc58 	.word	0x0000bc58
    b48c:	0000bc58 	.word	0x0000bc58
    b490:	0000bc58 	.word	0x0000bc58
    b494:	0000bc58 	.word	0x0000bc58
    b498:	0000bc58 	.word	0x0000bc58
    b49c:	0000bc58 	.word	0x0000bc58
    b4a0:	0000bc58 	.word	0x0000bc58
    b4a4:	0000bc58 	.word	0x0000bc58
    b4a8:	0000bc58 	.word	0x0000bc58
    b4ac:	0000bc58 	.word	0x0000bc58
    b4b0:	0000bc58 	.word	0x0000bc58
    b4b4:	0000bc58 	.word	0x0000bc58
    b4b8:	0000bc58 	.word	0x0000bc58
    b4bc:	0000b928 	.word	0x0000b928
    b4c0:	0000b8c4 	.word	0x0000b8c4
    b4c4:	0000b928 	.word	0x0000b928
    b4c8:	0000bc58 	.word	0x0000bc58
    b4cc:	0000bc58 	.word	0x0000bc58
    b4d0:	0000bc58 	.word	0x0000bc58
    b4d4:	0000bc58 	.word	0x0000bc58
    b4d8:	0000bc58 	.word	0x0000bc58
    b4dc:	0000bc58 	.word	0x0000bc58
    b4e0:	0000bc58 	.word	0x0000bc58
    b4e4:	0000bc58 	.word	0x0000bc58
    b4e8:	0000bc58 	.word	0x0000bc58
    b4ec:	0000bc58 	.word	0x0000bc58
    b4f0:	0000bc58 	.word	0x0000bc58
    b4f4:	0000bc58 	.word	0x0000bc58
    b4f8:	0000bc58 	.word	0x0000bc58
    b4fc:	0000bc58 	.word	0x0000bc58
    b500:	0000bc58 	.word	0x0000bc58
    b504:	0000bc58 	.word	0x0000bc58
    b508:	0000b5ac 	.word	0x0000b5ac
    b50c:	0000bc58 	.word	0x0000bc58
    b510:	0000bc58 	.word	0x0000bc58
    b514:	0000bc58 	.word	0x0000bc58
    b518:	0000bc58 	.word	0x0000bc58
    b51c:	0000bc58 	.word	0x0000bc58
    b520:	0000bc58 	.word	0x0000bc58
    b524:	0000bc58 	.word	0x0000bc58
    b528:	0000bc58 	.word	0x0000bc58
    b52c:	0000bc58 	.word	0x0000bc58
    b530:	0000b5ac 	.word	0x0000b5ac
    b534:	0000b9b0 	.word	0x0000b9b0
    b538:	0000b5ac 	.word	0x0000b5ac
    b53c:	0000b928 	.word	0x0000b928
    b540:	0000b8c4 	.word	0x0000b8c4
    b544:	0000b928 	.word	0x0000b928
    b548:	0000bc58 	.word	0x0000bc58
    b54c:	0000b5ac 	.word	0x0000b5ac
    b550:	0000bc58 	.word	0x0000bc58
    b554:	0000bc58 	.word	0x0000bc58
    b558:	0000bc58 	.word	0x0000bc58
    b55c:	0000bc58 	.word	0x0000bc58
    b560:	0000bc58 	.word	0x0000bc58
    b564:	0000b5ac 	.word	0x0000b5ac
    b568:	0000bbcc 	.word	0x0000bbcc
    b56c:	0000bc58 	.word	0x0000bc58
    b570:	0000bc58 	.word	0x0000bc58
    b574:	0000ba78 	.word	0x0000ba78
    b578:	0000bc58 	.word	0x0000bc58
    b57c:	0000b5ac 	.word	0x0000b5ac
    b580:	0000bc58 	.word	0x0000bc58
    b584:	0000bc58 	.word	0x0000bc58
    b588:	0000b5ac 	.word	0x0000b5ac
    b58c:	e3855c02 	orr	r5, r5, #512	; 0x200
    b590:	e2822001 	add	r2, r2, #1, 0
    b594:	e58d2034 	str	r2, [sp, #52]	; 0x34
    b598:	eaffffa1 	b	b424 <_vsnprintf+0x2c4>
    b59c:	e3855c01 	orr	r5, r5, #256	; 0x100
    b5a0:	e2822001 	add	r2, r2, #1, 0
    b5a4:	e58d2034 	str	r2, [sp, #52]	; 0x34
    b5a8:	eaffff9d 	b	b424 <_vsnprintf+0x2c4>
    b5ac:	e3500058 	cmp	r0, #88, 0	; 0x58
    b5b0:	13500078 	cmpne	r0, #120, 0	; 0x78
    b5b4:	0a000006 	beq	b5d4 <_vsnprintf+0x474>
    b5b8:	e350006f 	cmp	r0, #111, 0	; 0x6f
    b5bc:	0a00002d 	beq	b678 <_vsnprintf+0x518>
    b5c0:	e3500062 	cmp	r0, #98, 0	; 0x62
    b5c4:	0a00002d 	beq	b680 <_vsnprintf+0x520>
    b5c8:	e3c55010 	bic	r5, r5, #16, 0
    b5cc:	e3a0300a 	mov	r3, #10, 0
    b5d0:	ea000000 	b	b5d8 <_vsnprintf+0x478>
    b5d4:	e3a03010 	mov	r3, #16, 0
    b5d8:	e3500058 	cmp	r0, #88, 0	; 0x58
    b5dc:	0a000029 	beq	b688 <_vsnprintf+0x528>
    b5e0:	e3500069 	cmp	r0, #105, 0	; 0x69
    b5e4:	13500064 	cmpne	r0, #100, 0	; 0x64
    b5e8:	13c5500c 	bicne	r5, r5, #12, 0
    b5ec:	e3150b01 	tst	r5, #1024	; 0x400
    b5f0:	13c55001 	bicne	r5, r5, #1, 0
    b5f4:	e3500064 	cmp	r0, #100, 0	; 0x64
    b5f8:	13500069 	cmpne	r0, #105, 0	; 0x69
    b5fc:	1a000062 	bne	b78c <_vsnprintf+0x62c>
    b600:	e3150c02 	tst	r5, #512	; 0x200
    b604:	1a000021 	bne	b690 <_vsnprintf+0x530>
    b608:	e3150c01 	tst	r5, #256	; 0x100
    b60c:	1a00003d 	bne	b708 <_vsnprintf+0x5a8>
    b610:	e3150040 	tst	r5, #64, 0	; 0x40
    b614:	0a000050 	beq	b75c <_vsnprintf+0x5fc>
    b618:	e59d2060 	ldr	r2, [sp, #96]	; 0x60
    b61c:	e2821004 	add	r1, r2, #4, 0
    b620:	e58d1060 	str	r1, [sp, #96]	; 0x60
    b624:	e5d22000 	ldrb	r2, [r2]
    b628:	e0221fc2 	eor	r1, r2, r2, asr #31
    b62c:	e0411fc2 	sub	r1, r1, r2, asr #31
    b630:	e58d5014 	str	r5, [sp, #20]
    b634:	e59d0028 	ldr	r0, [sp, #40]	; 0x28
    b638:	e58d0010 	str	r0, [sp, #16]
    b63c:	e58db00c 	str	fp, [sp, #12]
    b640:	e58d3008 	str	r3, [sp, #8]
    b644:	e1a02fa2 	lsr	r2, r2, #31
    b648:	e58d2004 	str	r2, [sp, #4]
    b64c:	e58d1000 	str	r1, [sp]
    b650:	e1a03006 	mov	r3, r6
    b654:	e1a02004 	mov	r2, r4
    b658:	e1a01007 	mov	r1, r7
    b65c:	e1a00008 	mov	r0, r8
    b660:	ebfffb4c 	bl	a398 <_ntoa_long>
    b664:	e1a04000 	mov	r4, r0
    b668:	e59d3034 	ldr	r3, [sp, #52]	; 0x34
    b66c:	e2833001 	add	r3, r3, #1, 0
    b670:	e58d3034 	str	r3, [sp, #52]	; 0x34
    b674:	eafffec1 	b	b180 <_vsnprintf+0x20>
    b678:	e3a03008 	mov	r3, #8, 0
    b67c:	eaffffd5 	b	b5d8 <_vsnprintf+0x478>
    b680:	e3a03002 	mov	r3, #2, 0
    b684:	eaffffd3 	b	b5d8 <_vsnprintf+0x478>
    b688:	e3855020 	orr	r5, r5, #32, 0
    b68c:	eaffffd3 	b	b5e0 <_vsnprintf+0x480>
    b690:	e59d2060 	ldr	r2, [sp, #96]	; 0x60
    b694:	e2822007 	add	r2, r2, #7, 0
    b698:	e3c22007 	bic	r2, r2, #7, 0
    b69c:	e2821008 	add	r1, r2, #8, 0
    b6a0:	e58d1060 	str	r1, [sp, #96]	; 0x60
    b6a4:	e592c000 	ldr	ip, [r2]
    b6a8:	e5921004 	ldr	r1, [r2, #4]
    b6ac:	e1a00fc1 	asr	r0, r1, #31
    b6b0:	e020200c 	eor	r2, r0, ip
    b6b4:	e020c001 	eor	ip, r0, r1
    b6b8:	e0522000 	subs	r2, r2, r0
    b6bc:	e0ccc000 	sbc	ip, ip, r0
    b6c0:	e58d5020 	str	r5, [sp, #32]
    b6c4:	e59d0028 	ldr	r0, [sp, #40]	; 0x28
    b6c8:	e58d001c 	str	r0, [sp, #28]
    b6cc:	e58db018 	str	fp, [sp, #24]
    b6d0:	e58d3010 	str	r3, [sp, #16]
    b6d4:	e3a03000 	mov	r3, #0, 0
    b6d8:	e58d3014 	str	r3, [sp, #20]
    b6dc:	e1a01fa1 	lsr	r1, r1, #31
    b6e0:	e58d1008 	str	r1, [sp, #8]
    b6e4:	e58d2000 	str	r2, [sp]
    b6e8:	e58dc004 	str	ip, [sp, #4]
    b6ec:	e1a03006 	mov	r3, r6
    b6f0:	e1a02004 	mov	r2, r4
    b6f4:	e1a01007 	mov	r1, r7
    b6f8:	e1a00008 	mov	r0, r8
    b6fc:	ebfffb6b 	bl	a4b0 <_ntoa_long_long>
    b700:	e1a04000 	mov	r4, r0
    b704:	eaffffd7 	b	b668 <_vsnprintf+0x508>
    b708:	e59d2060 	ldr	r2, [sp, #96]	; 0x60
    b70c:	e2821004 	add	r1, r2, #4, 0
    b710:	e58d1060 	str	r1, [sp, #96]	; 0x60
    b714:	e5922000 	ldr	r2, [r2]
    b718:	e0221fc2 	eor	r1, r2, r2, asr #31
    b71c:	e0411fc2 	sub	r1, r1, r2, asr #31
    b720:	e58d5014 	str	r5, [sp, #20]
    b724:	e59d0028 	ldr	r0, [sp, #40]	; 0x28
    b728:	e58d0010 	str	r0, [sp, #16]
    b72c:	e58db00c 	str	fp, [sp, #12]
    b730:	e58d3008 	str	r3, [sp, #8]
    b734:	e1a02fa2 	lsr	r2, r2, #31
    b738:	e58d2004 	str	r2, [sp, #4]
    b73c:	e58d1000 	str	r1, [sp]
    b740:	e1a03006 	mov	r3, r6
    b744:	e1a02004 	mov	r2, r4
    b748:	e1a01007 	mov	r1, r7
    b74c:	e1a00008 	mov	r0, r8
    b750:	ebfffb10 	bl	a398 <_ntoa_long>
    b754:	e1a04000 	mov	r4, r0
    b758:	eaffffc2 	b	b668 <_vsnprintf+0x508>
    b75c:	e3150080 	tst	r5, #128, 0	; 0x80
    b760:	0a000004 	beq	b778 <_vsnprintf+0x618>
    b764:	e59d2060 	ldr	r2, [sp, #96]	; 0x60
    b768:	e2821004 	add	r1, r2, #4, 0
    b76c:	e58d1060 	str	r1, [sp, #96]	; 0x60
    b770:	e1d220f0 	ldrsh	r2, [r2]
    b774:	eaffffab 	b	b628 <_vsnprintf+0x4c8>
    b778:	e59d2060 	ldr	r2, [sp, #96]	; 0x60
    b77c:	e2821004 	add	r1, r2, #4, 0
    b780:	e58d1060 	str	r1, [sp, #96]	; 0x60
    b784:	e5922000 	ldr	r2, [r2]
    b788:	eaffffa6 	b	b628 <_vsnprintf+0x4c8>
    b78c:	e3150c02 	tst	r5, #512	; 0x200
    b790:	1a000016 	bne	b7f0 <_vsnprintf+0x690>
    b794:	e3150c01 	tst	r5, #256	; 0x100
    b798:	1a00002a 	bne	b848 <_vsnprintf+0x6e8>
    b79c:	e3150040 	tst	r5, #64, 0	; 0x40
    b7a0:	0a00003b 	beq	b894 <_vsnprintf+0x734>
    b7a4:	e59d2060 	ldr	r2, [sp, #96]	; 0x60
    b7a8:	e2821004 	add	r1, r2, #4, 0
    b7ac:	e58d1060 	str	r1, [sp, #96]	; 0x60
    b7b0:	e5d22000 	ldrb	r2, [r2]
    b7b4:	e58d5014 	str	r5, [sp, #20]
    b7b8:	e59d1028 	ldr	r1, [sp, #40]	; 0x28
    b7bc:	e58d1010 	str	r1, [sp, #16]
    b7c0:	e58db00c 	str	fp, [sp, #12]
    b7c4:	e58d3008 	str	r3, [sp, #8]
    b7c8:	e3a03000 	mov	r3, #0, 0
    b7cc:	e58d3004 	str	r3, [sp, #4]
    b7d0:	e58d2000 	str	r2, [sp]
    b7d4:	e1a03006 	mov	r3, r6
    b7d8:	e1a02004 	mov	r2, r4
    b7dc:	e1a01007 	mov	r1, r7
    b7e0:	e1a00008 	mov	r0, r8
    b7e4:	ebfffaeb 	bl	a398 <_ntoa_long>
    b7e8:	e1a04000 	mov	r4, r0
    b7ec:	eaffff9d 	b	b668 <_vsnprintf+0x508>
    b7f0:	e59d2060 	ldr	r2, [sp, #96]	; 0x60
    b7f4:	e2822007 	add	r2, r2, #7, 0
    b7f8:	e3c22007 	bic	r2, r2, #7, 0
    b7fc:	e2821008 	add	r1, r2, #8, 0
    b800:	e58d1060 	str	r1, [sp, #96]	; 0x60
    b804:	e58d5020 	str	r5, [sp, #32]
    b808:	e59d1028 	ldr	r1, [sp, #40]	; 0x28
    b80c:	e58d101c 	str	r1, [sp, #28]
    b810:	e58db018 	str	fp, [sp, #24]
    b814:	e3a01000 	mov	r1, #0, 0
    b818:	e58d3010 	str	r3, [sp, #16]
    b81c:	e58d1014 	str	r1, [sp, #20]
    b820:	e58d1008 	str	r1, [sp, #8]
    b824:	e1c220d0 	ldrd	r2, [r2]
    b828:	e1cd20f0 	strd	r2, [sp]
    b82c:	e1a03006 	mov	r3, r6
    b830:	e1a02004 	mov	r2, r4
    b834:	e1a01007 	mov	r1, r7
    b838:	e1a00008 	mov	r0, r8
    b83c:	ebfffb1b 	bl	a4b0 <_ntoa_long_long>
    b840:	e1a04000 	mov	r4, r0
    b844:	eaffff87 	b	b668 <_vsnprintf+0x508>
    b848:	e59d2060 	ldr	r2, [sp, #96]	; 0x60
    b84c:	e2821004 	add	r1, r2, #4, 0
    b850:	e58d1060 	str	r1, [sp, #96]	; 0x60
    b854:	e58d5014 	str	r5, [sp, #20]
    b858:	e59d1028 	ldr	r1, [sp, #40]	; 0x28
    b85c:	e58d1010 	str	r1, [sp, #16]
    b860:	e58db00c 	str	fp, [sp, #12]
    b864:	e58d3008 	str	r3, [sp, #8]
    b868:	e3a03000 	mov	r3, #0, 0
    b86c:	e58d3004 	str	r3, [sp, #4]
    b870:	e5923000 	ldr	r3, [r2]
    b874:	e58d3000 	str	r3, [sp]
    b878:	e1a03006 	mov	r3, r6
    b87c:	e1a02004 	mov	r2, r4
    b880:	e1a01007 	mov	r1, r7
    b884:	e1a00008 	mov	r0, r8
    b888:	ebfffac2 	bl	a398 <_ntoa_long>
    b88c:	e1a04000 	mov	r4, r0
    b890:	eaffff74 	b	b668 <_vsnprintf+0x508>
    b894:	e3150080 	tst	r5, #128, 0	; 0x80
    b898:	0a000004 	beq	b8b0 <_vsnprintf+0x750>
    b89c:	e59d2060 	ldr	r2, [sp, #96]	; 0x60
    b8a0:	e2821004 	add	r1, r2, #4, 0
    b8a4:	e58d1060 	str	r1, [sp, #96]	; 0x60
    b8a8:	e1d220b0 	ldrh	r2, [r2]
    b8ac:	eaffffc0 	b	b7b4 <_vsnprintf+0x654>
    b8b0:	e59d2060 	ldr	r2, [sp, #96]	; 0x60
    b8b4:	e2821004 	add	r1, r2, #4, 0
    b8b8:	e58d1060 	str	r1, [sp, #96]	; 0x60
    b8bc:	e5922000 	ldr	r2, [r2]
    b8c0:	eaffffbb 	b	b7b4 <_vsnprintf+0x654>
    b8c4:	e3500046 	cmp	r0, #70, 0	; 0x46
    b8c8:	0a000014 	beq	b920 <_vsnprintf+0x7c0>
    b8cc:	e59d3060 	ldr	r3, [sp, #96]	; 0x60
    b8d0:	e2833007 	add	r3, r3, #7, 0
    b8d4:	e3c33007 	bic	r3, r3, #7, 0
    b8d8:	e2832008 	add	r2, r3, #8, 0
    b8dc:	e58d2060 	str	r2, [sp, #96]	; 0x60
    b8e0:	e58d5010 	str	r5, [sp, #16]
    b8e4:	e59d2028 	ldr	r2, [sp, #40]	; 0x28
    b8e8:	e58d200c 	str	r2, [sp, #12]
    b8ec:	e58db008 	str	fp, [sp, #8]
    b8f0:	e1c320d0 	ldrd	r2, [r3]
    b8f4:	e1cd20f0 	strd	r2, [sp]
    b8f8:	e1a03006 	mov	r3, r6
    b8fc:	e1a02004 	mov	r2, r4
    b900:	e1a01007 	mov	r1, r7
    b904:	e1a00008 	mov	r0, r8
    b908:	ebfffca4 	bl	aba0 <_ftoa>
    b90c:	e1a04000 	mov	r4, r0
    b910:	e59d3034 	ldr	r3, [sp, #52]	; 0x34
    b914:	e2833001 	add	r3, r3, #1, 0
    b918:	e58d3034 	str	r3, [sp, #52]	; 0x34
    b91c:	eafffe17 	b	b180 <_vsnprintf+0x20>
    b920:	e3855020 	orr	r5, r5, #32, 0
    b924:	eaffffe8 	b	b8cc <_vsnprintf+0x76c>
    b928:	e3500047 	cmp	r0, #71, 0	; 0x47
    b92c:	13a03000 	movne	r3, #0, 0
    b930:	03a03001 	moveq	r3, #1, 0
    b934:	e3500067 	cmp	r0, #103, 0	; 0x67
    b938:	11a02003 	movne	r2, r3
    b93c:	03832001 	orreq	r2, r3, #1, 0
    b940:	e3520000 	cmp	r2, #0, 0
    b944:	13855b02 	orrne	r5, r5, #2048	; 0x800
    b948:	e3500045 	cmp	r0, #69, 0	; 0x45
    b94c:	11a00003 	movne	r0, r3
    b950:	03830001 	orreq	r0, r3, #1, 0
    b954:	e3500000 	cmp	r0, #0, 0
    b958:	13855020 	orrne	r5, r5, #32, 0
    b95c:	e59d3060 	ldr	r3, [sp, #96]	; 0x60
    b960:	e2833007 	add	r3, r3, #7, 0
    b964:	e3c33007 	bic	r3, r3, #7, 0
    b968:	e2832008 	add	r2, r3, #8, 0
    b96c:	e58d2060 	str	r2, [sp, #96]	; 0x60
    b970:	e58d5010 	str	r5, [sp, #16]
    b974:	e59d2028 	ldr	r2, [sp, #40]	; 0x28
    b978:	e58d200c 	str	r2, [sp, #12]
    b97c:	e58db008 	str	fp, [sp, #8]
    b980:	e1c320d0 	ldrd	r2, [r3]
    b984:	e1cd20f0 	strd	r2, [sp]
    b988:	e1a03006 	mov	r3, r6
    b98c:	e1a02004 	mov	r2, r4
    b990:	e1a01007 	mov	r1, r7
    b994:	e1a00008 	mov	r0, r8
    b998:	ebfffb11 	bl	a5e4 <_etoa>
    b99c:	e1a04000 	mov	r4, r0
    b9a0:	e59d3034 	ldr	r3, [sp, #52]	; 0x34
    b9a4:	e2833001 	add	r3, r3, #1, 0
    b9a8:	e58d3034 	str	r3, [sp, #52]	; 0x34
    b9ac:	eafffdf3 	b	b180 <_vsnprintf+0x20>
    b9b0:	e2155002 	ands	r5, r5, #2, 0
    b9b4:	0a00001c 	beq	ba2c <_vsnprintf+0x8cc>
    b9b8:	e3a09001 	mov	r9, #1, 0
    b9bc:	e59d0060 	ldr	r0, [sp, #96]	; 0x60
    b9c0:	e2803004 	add	r3, r0, #4, 0
    b9c4:	e58d3060 	str	r3, [sp, #96]	; 0x60
    b9c8:	e284a001 	add	sl, r4, #1, 0
    b9cc:	e1a03006 	mov	r3, r6
    b9d0:	e1a02004 	mov	r2, r4
    b9d4:	e1a01007 	mov	r1, r7
    b9d8:	e5d00000 	ldrb	r0, [r0]
    b9dc:	e12fff38 	blx	r8
    b9e0:	e3550000 	cmp	r5, #0, 0
    b9e4:	1a000014 	bne	ba3c <_vsnprintf+0x8dc>
    b9e8:	e59d3034 	ldr	r3, [sp, #52]	; 0x34
    b9ec:	e2833001 	add	r3, r3, #1, 0
    b9f0:	e58d3034 	str	r3, [sp, #52]	; 0x34
    b9f4:	e1a0400a 	mov	r4, sl
    b9f8:	eafffde0 	b	b180 <_vsnprintf+0x20>
    b9fc:	e282a001 	add	sl, r2, #1, 0
    ba00:	e1a03006 	mov	r3, r6
    ba04:	e1a01007 	mov	r1, r7
    ba08:	e3a00020 	mov	r0, #32, 0
    ba0c:	e12fff38 	blx	r8
    ba10:	e1a03009 	mov	r3, r9
    ba14:	e1a0200a 	mov	r2, sl
    ba18:	e2839001 	add	r9, r3, #1, 0
    ba1c:	e15b0003 	cmp	fp, r3
    ba20:	8afffff5 	bhi	b9fc <_vsnprintf+0x89c>
    ba24:	e1a04002 	mov	r4, r2
    ba28:	eaffffe3 	b	b9bc <_vsnprintf+0x85c>
    ba2c:	e3a03001 	mov	r3, #1, 0
    ba30:	e59db028 	ldr	fp, [sp, #40]	; 0x28
    ba34:	e1a02004 	mov	r2, r4
    ba38:	eafffff6 	b	ba18 <_vsnprintf+0x8b8>
    ba3c:	e1a0200a 	mov	r2, sl
    ba40:	e59da028 	ldr	sl, [sp, #40]	; 0x28
    ba44:	ea000006 	b	ba64 <_vsnprintf+0x904>
    ba48:	e2825001 	add	r5, r2, #1, 0
    ba4c:	e1a03006 	mov	r3, r6
    ba50:	e1a01007 	mov	r1, r7
    ba54:	e3a00020 	mov	r0, #32, 0
    ba58:	e12fff38 	blx	r8
    ba5c:	e1a09004 	mov	r9, r4
    ba60:	e1a02005 	mov	r2, r5
    ba64:	e2894001 	add	r4, r9, #1, 0
    ba68:	e15a0009 	cmp	sl, r9
    ba6c:	8afffff5 	bhi	ba48 <_vsnprintf+0x8e8>
    ba70:	e1a0a002 	mov	sl, r2
    ba74:	eaffffdb 	b	b9e8 <_vsnprintf+0x888>
    ba78:	e59d3060 	ldr	r3, [sp, #96]	; 0x60
    ba7c:	e2832004 	add	r2, r3, #4, 0
    ba80:	e58d2060 	str	r2, [sp, #96]	; 0x60
    ba84:	e593a000 	ldr	sl, [r3]
    ba88:	e35b0000 	cmp	fp, #0, 0
    ba8c:	1a000016 	bne	baec <_vsnprintf+0x98c>
    ba90:	e3e03000 	mvn	r3, #0, 0
    ba94:	e1a0900a 	mov	r9, sl
    ba98:	ea000001 	b	baa4 <_vsnprintf+0x944>
    ba9c:	e2899001 	add	r9, r9, #1, 0
    baa0:	e1a03002 	mov	r3, r2
    baa4:	e5d92000 	ldrb	r2, [r9]
    baa8:	e3520000 	cmp	r2, #0, 0
    baac:	0a000002 	beq	babc <_vsnprintf+0x95c>
    bab0:	e2432001 	sub	r2, r3, #1, 0
    bab4:	e3530000 	cmp	r3, #0, 0
    bab8:	1afffff7 	bne	ba9c <_vsnprintf+0x93c>
    babc:	e049900a 	sub	r9, r9, sl
    bac0:	e2153b01 	ands	r3, r5, #1024	; 0x400
    bac4:	e58d302c 	str	r3, [sp, #44]	; 0x2c
    bac8:	0a000001 	beq	bad4 <_vsnprintf+0x974>
    bacc:	e159000b 	cmp	r9, fp
    bad0:	21a0900b 	movcs	r9, fp
    bad4:	e2153002 	ands	r3, r5, #2, 0
    bad8:	e58d3030 	str	r3, [sp, #48]	; 0x30
    badc:	0a000004 	beq	baf4 <_vsnprintf+0x994>
    bae0:	e1a02004 	mov	r2, r4
    bae4:	e59d402c 	ldr	r4, [sp, #44]	; 0x2c
    bae8:	ea000019 	b	bb54 <_vsnprintf+0x9f4>
    baec:	e1a0300b 	mov	r3, fp
    baf0:	eaffffe7 	b	ba94 <_vsnprintf+0x934>
    baf4:	e1a02004 	mov	r2, r4
    baf8:	e59d4028 	ldr	r4, [sp, #40]	; 0x28
    bafc:	e1a03009 	mov	r3, r9
    bb00:	ea000006 	b	bb20 <_vsnprintf+0x9c0>
    bb04:	e2829001 	add	r9, r2, #1, 0
    bb08:	e1a03006 	mov	r3, r6
    bb0c:	e1a01007 	mov	r1, r7
    bb10:	e3a00020 	mov	r0, #32, 0
    bb14:	e12fff38 	blx	r8
    bb18:	e1a03005 	mov	r3, r5
    bb1c:	e1a02009 	mov	r2, r9
    bb20:	e2835001 	add	r5, r3, #1, 0
    bb24:	e1540003 	cmp	r4, r3
    bb28:	8afffff5 	bhi	bb04 <_vsnprintf+0x9a4>
    bb2c:	e1a09005 	mov	r9, r5
    bb30:	e59d402c 	ldr	r4, [sp, #44]	; 0x2c
    bb34:	ea000006 	b	bb54 <_vsnprintf+0x9f4>
    bb38:	e1a0b003 	mov	fp, r3
    bb3c:	e28aa001 	add	sl, sl, #1, 0
    bb40:	e2825001 	add	r5, r2, #1, 0
    bb44:	e1a03006 	mov	r3, r6
    bb48:	e1a01007 	mov	r1, r7
    bb4c:	e12fff38 	blx	r8
    bb50:	e1a02005 	mov	r2, r5
    bb54:	e5da0000 	ldrb	r0, [sl]
    bb58:	e3500000 	cmp	r0, #0, 0
    bb5c:	0a000004 	beq	bb74 <_vsnprintf+0xa14>
    bb60:	e3540000 	cmp	r4, #0, 0
    bb64:	0afffff4 	beq	bb3c <_vsnprintf+0x9dc>
    bb68:	e24b3001 	sub	r3, fp, #1, 0
    bb6c:	e35b0000 	cmp	fp, #0, 0
    bb70:	1afffff0 	bne	bb38 <_vsnprintf+0x9d8>
    bb74:	e1a04002 	mov	r4, r2
    bb78:	e59d3030 	ldr	r3, [sp, #48]	; 0x30
    bb7c:	e3530000 	cmp	r3, #0, 0
    bb80:	1a000003 	bne	bb94 <_vsnprintf+0xa34>
    bb84:	e59d3034 	ldr	r3, [sp, #52]	; 0x34
    bb88:	e2833001 	add	r3, r3, #1, 0
    bb8c:	e58d3034 	str	r3, [sp, #52]	; 0x34
    bb90:	eafffd7a 	b	b180 <_vsnprintf+0x20>
    bb94:	e59da028 	ldr	sl, [sp, #40]	; 0x28
    bb98:	ea000006 	b	bbb8 <_vsnprintf+0xa58>
    bb9c:	e2825001 	add	r5, r2, #1, 0
    bba0:	e1a03006 	mov	r3, r6
    bba4:	e1a01007 	mov	r1, r7
    bba8:	e3a00020 	mov	r0, #32, 0
    bbac:	e12fff38 	blx	r8
    bbb0:	e1a09004 	mov	r9, r4
    bbb4:	e1a02005 	mov	r2, r5
    bbb8:	e2894001 	add	r4, r9, #1, 0
    bbbc:	e15a0009 	cmp	sl, r9
    bbc0:	8afffff5 	bhi	bb9c <_vsnprintf+0xa3c>
    bbc4:	e1a04002 	mov	r4, r2
    bbc8:	eaffffed 	b	bb84 <_vsnprintf+0xa24>
    bbcc:	e3855021 	orr	r5, r5, #33, 0	; 0x21
    bbd0:	e59d3060 	ldr	r3, [sp, #96]	; 0x60
    bbd4:	e2832004 	add	r2, r3, #4, 0
    bbd8:	e58d2060 	str	r2, [sp, #96]	; 0x60
    bbdc:	e5933000 	ldr	r3, [r3]
    bbe0:	e58d5014 	str	r5, [sp, #20]
    bbe4:	e3a02008 	mov	r2, #8, 0
    bbe8:	e58d2010 	str	r2, [sp, #16]
    bbec:	e58db00c 	str	fp, [sp, #12]
    bbf0:	e3a02010 	mov	r2, #16, 0
    bbf4:	e58d2008 	str	r2, [sp, #8]
    bbf8:	e3a02000 	mov	r2, #0, 0
    bbfc:	e58d2004 	str	r2, [sp, #4]
    bc00:	e58d3000 	str	r3, [sp]
    bc04:	e1a03006 	mov	r3, r6
    bc08:	e1a02004 	mov	r2, r4
    bc0c:	e1a01007 	mov	r1, r7
    bc10:	e1a00008 	mov	r0, r8
    bc14:	ebfff9df 	bl	a398 <_ntoa_long>
    bc18:	e1a04000 	mov	r4, r0
    bc1c:	e59d3034 	ldr	r3, [sp, #52]	; 0x34
    bc20:	e2833001 	add	r3, r3, #1, 0
    bc24:	e58d3034 	str	r3, [sp, #52]	; 0x34
    bc28:	eafffd54 	b	b180 <_vsnprintf+0x20>
    bc2c:	e2845001 	add	r5, r4, #1, 0
    bc30:	e1a03006 	mov	r3, r6
    bc34:	e1a02004 	mov	r2, r4
    bc38:	e1a01007 	mov	r1, r7
    bc3c:	e3a00025 	mov	r0, #37, 0	; 0x25
    bc40:	e12fff38 	blx	r8
    bc44:	e59d3034 	ldr	r3, [sp, #52]	; 0x34
    bc48:	e2833001 	add	r3, r3, #1, 0
    bc4c:	e58d3034 	str	r3, [sp, #52]	; 0x34
    bc50:	e1a04005 	mov	r4, r5
    bc54:	eafffd49 	b	b180 <_vsnprintf+0x20>
    bc58:	e2845001 	add	r5, r4, #1, 0
    bc5c:	e1a03006 	mov	r3, r6
    bc60:	e1a02004 	mov	r2, r4
    bc64:	e1a01007 	mov	r1, r7
    bc68:	e12fff38 	blx	r8
    bc6c:	e59d3034 	ldr	r3, [sp, #52]	; 0x34
    bc70:	e2833001 	add	r3, r3, #1, 0
    bc74:	e58d3034 	str	r3, [sp, #52]	; 0x34
    bc78:	e1a04005 	mov	r4, r5
    bc7c:	eafffd3f 	b	b180 <_vsnprintf+0x20>
    bc80:	e59f8030 	ldr	r8, [pc, #48]	; bcb8 <_vsnprintf+0xb58>
    bc84:	eafffd3c 	b	b17c <_vsnprintf+0x1c>
    bc88:	e1540006 	cmp	r4, r6
    bc8c:	3a000007 	bcc	bcb0 <_vsnprintf+0xb50>
    bc90:	e2462001 	sub	r2, r6, #1, 0
    bc94:	e1a03006 	mov	r3, r6
    bc98:	e1a01007 	mov	r1, r7
    bc9c:	e3a00000 	mov	r0, #0, 0
    bca0:	e12fff38 	blx	r8
    bca4:	e1a00004 	mov	r0, r4
    bca8:	e28dd03c 	add	sp, sp, #60, 0	; 0x3c
    bcac:	e8bd8ff0 	pop	{r4, r5, r6, r7, r8, r9, sl, fp, pc}
    bcb0:	e1a02004 	mov	r2, r4
    bcb4:	eafffff6 	b	bc94 <_vsnprintf+0xb34>
    bcb8:	0000a0a0 	.word	0x0000a0a0

0000bcbc <printf_>:
    bcbc:	e92d000f 	push	{r0, r1, r2, r3}
    bcc0:	e52de004 	push	{lr}		; (str lr, [sp, #-4]!)
    bcc4:	e24dd014 	sub	sp, sp, #20, 0
    bcc8:	e28d301c 	add	r3, sp, #28, 0
    bccc:	e58d300c 	str	r3, [sp, #12]
    bcd0:	e58d3000 	str	r3, [sp]
    bcd4:	e59d3018 	ldr	r3, [sp, #24]
    bcd8:	e3e02000 	mvn	r2, #0, 0
    bcdc:	e28d1008 	add	r1, sp, #8, 0
    bce0:	e59f0010 	ldr	r0, [pc, #16]	; bcf8 <printf_+0x3c>
    bce4:	ebfffd1d 	bl	b160 <_vsnprintf>
    bce8:	e28dd014 	add	sp, sp, #20, 0
    bcec:	e49de004 	pop	{lr}		; (ldr lr, [sp], #4)
    bcf0:	e28dd010 	add	sp, sp, #16, 0
    bcf4:	e12fff1e 	bx	lr
    bcf8:	0000a0a4 	.word	0x0000a0a4

0000bcfc <sprintf_>:
    bcfc:	e92d000e 	push	{r1, r2, r3}
    bd00:	e52de004 	push	{lr}		; (str lr, [sp, #-4]!)
    bd04:	e24dd010 	sub	sp, sp, #16, 0
    bd08:	e1a01000 	mov	r1, r0
    bd0c:	e28d3018 	add	r3, sp, #24, 0
    bd10:	e58d300c 	str	r3, [sp, #12]
    bd14:	e58d3000 	str	r3, [sp]
    bd18:	e59d3014 	ldr	r3, [sp, #20]
    bd1c:	e3e02000 	mvn	r2, #0, 0
    bd20:	e59f0010 	ldr	r0, [pc, #16]	; bd38 <sprintf_+0x3c>
    bd24:	ebfffd0d 	bl	b160 <_vsnprintf>
    bd28:	e28dd010 	add	sp, sp, #16, 0
    bd2c:	e49de004 	pop	{lr}		; (ldr lr, [sp], #4)
    bd30:	e28dd00c 	add	sp, sp, #12, 0
    bd34:	e12fff1e 	bx	lr
    bd38:	0000a094 	.word	0x0000a094

0000bd3c <snprintf_>:
    bd3c:	e92d000c 	push	{r2, r3}
    bd40:	e52de004 	push	{lr}		; (str lr, [sp, #-4]!)
    bd44:	e24dd014 	sub	sp, sp, #20, 0
    bd48:	e1a02001 	mov	r2, r1
    bd4c:	e28d301c 	add	r3, sp, #28, 0
    bd50:	e58d300c 	str	r3, [sp, #12]
    bd54:	e58d3000 	str	r3, [sp]
    bd58:	e59d3018 	ldr	r3, [sp, #24]
    bd5c:	e1a01000 	mov	r1, r0
    bd60:	e59f0010 	ldr	r0, [pc, #16]	; bd78 <snprintf_+0x3c>
    bd64:	ebfffcfd 	bl	b160 <_vsnprintf>
    bd68:	e28dd014 	add	sp, sp, #20, 0
    bd6c:	e49de004 	pop	{lr}		; (ldr lr, [sp], #4)
    bd70:	e28dd008 	add	sp, sp, #8, 0
    bd74:	e12fff1e 	bx	lr
    bd78:	0000a094 	.word	0x0000a094

0000bd7c <vprintf_>:
    bd7c:	e52de004 	push	{lr}		; (str lr, [sp, #-4]!)
    bd80:	e24dd014 	sub	sp, sp, #20, 0
    bd84:	e1a03000 	mov	r3, r0
    bd88:	e58d1000 	str	r1, [sp]
    bd8c:	e3e02000 	mvn	r2, #0, 0
    bd90:	e28d100c 	add	r1, sp, #12, 0
    bd94:	e59f0008 	ldr	r0, [pc, #8]	; bda4 <vprintf_+0x28>
    bd98:	ebfffcf0 	bl	b160 <_vsnprintf>
    bd9c:	e28dd014 	add	sp, sp, #20, 0
    bda0:	e49df004 	pop	{pc}		; (ldr pc, [sp], #4)
    bda4:	0000a0a4 	.word	0x0000a0a4

0000bda8 <vsnprintf_>:
    bda8:	e52de004 	push	{lr}		; (str lr, [sp, #-4]!)
    bdac:	e24dd00c 	sub	sp, sp, #12, 0
    bdb0:	e58d3000 	str	r3, [sp]
    bdb4:	e1a03002 	mov	r3, r2
    bdb8:	e1a02001 	mov	r2, r1
    bdbc:	e1a01000 	mov	r1, r0
    bdc0:	e59f0008 	ldr	r0, [pc, #8]	; bdd0 <vsnprintf_+0x28>
    bdc4:	ebfffce5 	bl	b160 <_vsnprintf>
    bdc8:	e28dd00c 	add	sp, sp, #12, 0
    bdcc:	e49df004 	pop	{pc}		; (ldr pc, [sp], #4)
    bdd0:	0000a094 	.word	0x0000a094

0000bdd4 <fctprintf>:
    bdd4:	e92d000c 	push	{r2, r3}
    bdd8:	e52de004 	push	{lr}		; (str lr, [sp, #-4]!)
    bddc:	e24dd01c 	sub	sp, sp, #28, 0
    bde0:	e28d3024 	add	r3, sp, #36, 0	; 0x24
    bde4:	e58d3014 	str	r3, [sp, #20]
    bde8:	e58d000c 	str	r0, [sp, #12]
    bdec:	e58d1010 	str	r1, [sp, #16]
    bdf0:	e58d3000 	str	r3, [sp]
    bdf4:	e59d3020 	ldr	r3, [sp, #32]
    bdf8:	e3e02000 	mvn	r2, #0, 0
    bdfc:	e28d100c 	add	r1, sp, #12, 0
    be00:	e59f0010 	ldr	r0, [pc, #16]	; be18 <fctprintf+0x44>
    be04:	ebfffcd5 	bl	b160 <_vsnprintf>
    be08:	e28dd01c 	add	sp, sp, #28, 0
    be0c:	e49de004 	pop	{lr}		; (ldr lr, [sp], #4)
    be10:	e28dd008 	add	sp, sp, #8, 0
    be14:	e12fff1e 	bx	lr
    be18:	0000a0c4 	.word	0x0000a0c4

0000be1c <sqrtf_babylonian>:
    be1c:	e92d4070 	push	{r4, r5, r6, lr}
    be20:	e1a04000 	mov	r4, r0
    be24:	e1a050c0 	asr	r5, r0, #1
    be28:	e285557f 	add	r5, r5, #532676608	; 0x1fc00000
    be2c:	e1a01005 	mov	r1, r5
    be30:	eb000653 	bl	d784 <__aeabi_fdiv>
    be34:	e1a01005 	mov	r1, r5
    be38:	eb000543 	bl	d34c <__addsf3>
    be3c:	e1a06000 	mov	r6, r0
    be40:	e3a015fa 	mov	r1, #1048576000	; 0x3e800000
    be44:	eb0005e8 	bl	d5ec <__aeabi_fmul>
    be48:	e1a05000 	mov	r5, r0
    be4c:	e1a01006 	mov	r1, r6
    be50:	e1a00004 	mov	r0, r4
    be54:	eb00064a 	bl	d784 <__aeabi_fdiv>
    be58:	e1a01000 	mov	r1, r0
    be5c:	e1a00005 	mov	r0, r5
    be60:	eb000539 	bl	d34c <__addsf3>
    be64:	e8bd8070 	pop	{r4, r5, r6, pc}

0000be68 <degrees_to_radians>:
    be68:	e92d4010 	push	{r4, lr}
    be6c:	eb00033a 	bl	cb5c <__aeabi_f2d>
    be70:	e59f2018 	ldr	r2, [pc, #24]	; be90 <degrees_to_radians+0x28>
    be74:	e59f3018 	ldr	r3, [pc, #24]	; be94 <degrees_to_radians+0x2c>
    be78:	eb000364 	bl	cc10 <__aeabi_dmul>
    be7c:	e3a02000 	mov	r2, #0, 0
    be80:	e59f3010 	ldr	r3, [pc, #16]	; be98 <degrees_to_radians+0x30>
    be84:	eb000405 	bl	cea0 <__aeabi_ddiv>
    be88:	eb000504 	bl	d2a0 <__aeabi_d2f>
    be8c:	e8bd8010 	pop	{r4, pc}
    be90:	54442d18 	.word	0x54442d18
    be94:	400921fb 	.word	0x400921fb
    be98:	40668000 	.word	0x40668000

0000be9c <clamp>:
    be9c:	e92d4070 	push	{r4, r5, r6, lr}
    bea0:	e1a04000 	mov	r4, r0
    bea4:	e1a06001 	mov	r6, r1
    bea8:	e1a05002 	mov	r5, r2
    beac:	eb0006b9 	bl	d998 <__aeabi_fcmplt>
    beb0:	e3500000 	cmp	r0, #0, 0
    beb4:	1a000006 	bne	bed4 <clamp+0x38>
    beb8:	e1a01005 	mov	r1, r5
    bebc:	e1a00004 	mov	r0, r4
    bec0:	eb0006c6 	bl	d9e0 <__aeabi_fcmpgt>
    bec4:	e3500000 	cmp	r0, #0, 0
    bec8:	1a000003 	bne	bedc <clamp+0x40>
    becc:	e1a00004 	mov	r0, r4
    bed0:	e8bd8070 	pop	{r4, r5, r6, pc}
    bed4:	e1a00006 	mov	r0, r6
    bed8:	e8bd8070 	pop	{r4, r5, r6, pc}
    bedc:	e1a00005 	mov	r0, r5
    bee0:	e8bd8070 	pop	{r4, r5, r6, pc}

0000bee4 <hardware_rand>:
    bee4:	e59f3048 	ldr	r3, [pc, #72]	; bf34 <hardware_rand+0x50>
    bee8:	e5933000 	ldr	r3, [r3]
    beec:	e3130001 	tst	r3, #1, 0
    bef0:	1a00000c 	bne	bf28 <hardware_rand+0x44>
    bef4:	e59f3038 	ldr	r3, [pc, #56]	; bf34 <hardware_rand+0x50>
    bef8:	e3a02701 	mov	r2, #262144	; 0x40000
    befc:	e5832004 	str	r2, [r3, #4]
    bf00:	e5932010 	ldr	r2, [r3, #16]
    bf04:	e3822001 	orr	r2, r2, #1, 0
    bf08:	e5832010 	str	r2, [r3, #16]
    bf0c:	e5932000 	ldr	r2, [r3]
    bf10:	e3822001 	orr	r2, r2, #1, 0
    bf14:	e5832000 	str	r2, [r3]
    bf18:	e59f3014 	ldr	r3, [pc, #20]	; bf34 <hardware_rand+0x50>
    bf1c:	e5933004 	ldr	r3, [r3, #4]
    bf20:	e1b03c23 	lsrs	r3, r3, #24
    bf24:	0afffffb 	beq	bf18 <hardware_rand+0x34>
    bf28:	e59f3004 	ldr	r3, [pc, #4]	; bf34 <hardware_rand+0x50>
    bf2c:	e5930008 	ldr	r0, [r3, #8]
    bf30:	e12fff1e 	bx	lr
    bf34:	20104000 	.word	0x20104000

0000bf38 <random_float>:
    bf38:	e92d4010 	push	{r4, lr}
    bf3c:	ebffffe8 	bl	bee4 <hardware_rand>
    bf40:	eb000570 	bl	d508 <__aeabi_ui2f>
    bf44:	eb000304 	bl	cb5c <__aeabi_f2d>
    bf48:	e3a02602 	mov	r2, #2097152	; 0x200000
    bf4c:	e59f3008 	ldr	r3, [pc, #8]	; bf5c <random_float+0x24>
    bf50:	eb0003d2 	bl	cea0 <__aeabi_ddiv>
    bf54:	eb0004d1 	bl	d2a0 <__aeabi_d2f>
    bf58:	e8bd8010 	pop	{r4, pc}
    bf5c:	41e00000 	.word	0x41e00000

0000bf60 <random_float_bounded>:
    bf60:	e92d4070 	push	{r4, r5, r6, lr}
    bf64:	e1a04000 	mov	r4, r0
    bf68:	e1a00001 	mov	r0, r1
    bf6c:	e1a01004 	mov	r1, r4
    bf70:	eb0004f4 	bl	d348 <__aeabi_fsub>
    bf74:	e1a05000 	mov	r5, r0
    bf78:	ebffffee 	bl	bf38 <random_float>
    bf7c:	e1a01000 	mov	r1, r0
    bf80:	e1a00005 	mov	r0, r5
    bf84:	eb000598 	bl	d5ec <__aeabi_fmul>
    bf88:	e1a01004 	mov	r1, r4
    bf8c:	eb0004ee 	bl	d34c <__addsf3>
    bf90:	e8bd8070 	pop	{r4, r5, r6, pc}

0000bf94 <my_tan>:
    bf94:	e92d41f0 	push	{r4, r5, r6, r7, r8, lr}
    bf98:	e1a05000 	mov	r5, r0
    bf9c:	e1a01000 	mov	r1, r0
    bfa0:	eb000591 	bl	d5ec <__aeabi_fmul>
    bfa4:	e1a07000 	mov	r7, r0
    bfa8:	e1a04005 	mov	r4, r5
    bfac:	e3a06001 	mov	r6, #1, 0
    bfb0:	e3a01000 	mov	r1, #0, 0
    bfb4:	e1a00004 	mov	r0, r4
    bfb8:	eb000670 	bl	d980 <__aeabi_fcmpeq>
    bfbc:	e3500000 	cmp	r0, #0, 0
    bfc0:	1a000012 	bne	c010 <my_tan+0x7c>
    bfc4:	e2878102 	add	r8, r7, #-2147483648	; 0x80000000
    bfc8:	e1a03086 	lsl	r3, r6, #1
    bfcc:	e2833001 	add	r3, r3, #1, 0
    bfd0:	e0030396 	mul	r3, r6, r3
    bfd4:	e1a00083 	lsl	r0, r3, #1
    bfd8:	eb00054c 	bl	d510 <__aeabi_i2f>
    bfdc:	e1a01000 	mov	r1, r0
    bfe0:	e1a00008 	mov	r0, r8
    bfe4:	eb0005e6 	bl	d784 <__aeabi_fdiv>
    bfe8:	e1a01000 	mov	r1, r0
    bfec:	e1a00004 	mov	r0, r4
    bff0:	eb00057d 	bl	d5ec <__aeabi_fmul>
    bff4:	e1a04000 	mov	r4, r0
    bff8:	e1a01000 	mov	r1, r0
    bffc:	e1a00005 	mov	r0, r5
    c000:	eb0004d1 	bl	d34c <__addsf3>
    c004:	e1a05000 	mov	r5, r0
    c008:	e2866001 	add	r6, r6, #1, 0
    c00c:	eaffffe7 	b	bfb0 <my_tan+0x1c>
    c010:	e1a00005 	mov	r0, r5
    c014:	e8bd81f0 	pop	{r4, r5, r6, r7, r8, pc}

0000c018 <my_cos>:
    c018:	e92d41f0 	push	{r4, r5, r6, r7, r8, lr}
    c01c:	e1a01000 	mov	r1, r0
    c020:	eb000571 	bl	d5ec <__aeabi_fmul>
    c024:	e1a07000 	mov	r7, r0
    c028:	e3a06001 	mov	r6, #1, 0
    c02c:	e3a045fe 	mov	r4, #1065353216	; 0x3f800000
    c030:	e1a05004 	mov	r5, r4
    c034:	e3a01000 	mov	r1, #0, 0
    c038:	e1a00004 	mov	r0, r4
    c03c:	eb00064f 	bl	d980 <__aeabi_fcmpeq>
    c040:	e3500000 	cmp	r0, #0, 0
    c044:	1a000012 	bne	c094 <my_cos+0x7c>
    c048:	e2878102 	add	r8, r7, #-2147483648	; 0x80000000
    c04c:	e1a03086 	lsl	r3, r6, #1
    c050:	e2433001 	sub	r3, r3, #1, 0
    c054:	e0030396 	mul	r3, r6, r3
    c058:	e1a00083 	lsl	r0, r3, #1
    c05c:	eb00052b 	bl	d510 <__aeabi_i2f>
    c060:	e1a01000 	mov	r1, r0
    c064:	e1a00008 	mov	r0, r8
    c068:	eb0005c5 	bl	d784 <__aeabi_fdiv>
    c06c:	e1a01000 	mov	r1, r0
    c070:	e1a00004 	mov	r0, r4
    c074:	eb00055c 	bl	d5ec <__aeabi_fmul>
    c078:	e1a04000 	mov	r4, r0
    c07c:	e1a01000 	mov	r1, r0
    c080:	e1a00005 	mov	r0, r5
    c084:	eb0004b0 	bl	d34c <__addsf3>
    c088:	e1a05000 	mov	r5, r0
    c08c:	e2866001 	add	r6, r6, #1, 0
    c090:	eaffffe7 	b	c034 <my_cos+0x1c>
    c094:	e1a00005 	mov	r0, r5
    c098:	e8bd81f0 	pop	{r4, r5, r6, r7, r8, pc}

0000c09c <lambertian_scatter>:
    c09c:	e24dd008 	sub	sp, sp, #8, 0
    c0a0:	e92d40f0 	push	{r4, r5, r6, r7, lr}
    c0a4:	e24dd054 	sub	sp, sp, #84, 0	; 0x54
    c0a8:	e28d6014 	add	r6, sp, #20, 0
    c0ac:	e8860007 	stm	r6, {r0, r1, r2}
    c0b0:	e58d306c 	str	r3, [sp, #108]	; 0x6c
    c0b4:	e59d70a8 	ldr	r7, [sp, #168]	; 0xa8
    c0b8:	e28d4044 	add	r4, sp, #68, 0	; 0x44
    c0bc:	e1a00004 	mov	r0, r4
    c0c0:	ebfff739 	bl	9dac <random_unit_vector>
    c0c4:	e28d5038 	add	r5, sp, #56, 0	; 0x38
    c0c8:	e8940007 	ldm	r4, {r0, r1, r2}
    c0cc:	e88d0007 	stm	sp, {r0, r1, r2}
    c0d0:	e28d3094 	add	r3, sp, #148, 0	; 0x94
    c0d4:	e893000e 	ldm	r3, {r1, r2, r3}
    c0d8:	e1a00005 	mov	r0, r5
    c0dc:	ebfff5df 	bl	9860 <vec3_add>
    c0e0:	e28d4020 	add	r4, sp, #32, 0
    c0e4:	e28d3088 	add	r3, sp, #136, 0	; 0x88
    c0e8:	e8930007 	ldm	r3, {r0, r1, r2}
    c0ec:	e8840007 	stm	r4, {r0, r1, r2}
    c0f0:	e28d302c 	add	r3, sp, #44, 0	; 0x2c
    c0f4:	e8950007 	ldm	r5, {r0, r1, r2}
    c0f8:	e8830007 	stm	r3, {r0, r1, r2}
    c0fc:	ebfff75b 	bl	9e70 <vec3_near_zero>
    c100:	e59de0ac 	ldr	lr, [sp, #172]	; 0xac
    c104:	e1a0c004 	mov	ip, r4
    c108:	e8bc000f 	ldm	ip!, {r0, r1, r2, r3}
    c10c:	e8ae000f 	stmia	lr!, {r0, r1, r2, r3}
    c110:	e89c0003 	ldm	ip, {r0, r1}
    c114:	e88e0003 	stm	lr, {r0, r1}
    c118:	e8960007 	ldm	r6, {r0, r1, r2}
    c11c:	e8870007 	stm	r7, {r0, r1, r2}
    c120:	e3a00001 	mov	r0, #1, 0
    c124:	e28dd054 	add	sp, sp, #84, 0	; 0x54
    c128:	e8bd40f0 	pop	{r4, r5, r6, r7, lr}
    c12c:	e28dd008 	add	sp, sp, #8, 0
    c130:	e12fff1e 	bx	lr

0000c134 <metal_scatter>:
    c134:	e24dd008 	sub	sp, sp, #8, 0
    c138:	e92d41f0 	push	{r4, r5, r6, r7, r8, lr}
    c13c:	e24dd050 	sub	sp, sp, #80, 0	; 0x50
    c140:	e28d5014 	add	r5, sp, #20, 0
    c144:	e8850007 	stm	r5, {r0, r1, r2}
    c148:	e58d306c 	str	r3, [sp, #108]	; 0x6c
    c14c:	e59d80a8 	ldr	r8, [sp, #168]	; 0xa8
    c150:	e59d40ac 	ldr	r4, [sp, #172]	; 0xac
    c154:	e28d7044 	add	r7, sp, #68, 0	; 0x44
    c158:	e28d3078 	add	r3, sp, #120, 0	; 0x78
    c15c:	e893000e 	ldm	r3, {r1, r2, r3}
    c160:	e1a00007 	mov	r0, r7
    c164:	ebfff680 	bl	9b6c <vec3_normalize>
    c168:	e28d6038 	add	r6, sp, #56, 0	; 0x38
    c16c:	e28d3094 	add	r3, sp, #148, 0	; 0x94
    c170:	e8930007 	ldm	r3, {r0, r1, r2}
    c174:	e88d0007 	stm	sp, {r0, r1, r2}
    c178:	e897000e 	ldm	r7, {r1, r2, r3}
    c17c:	e1a00006 	mov	r0, r6
    c180:	ebfff750 	bl	9ec8 <vec3_reflect>
    c184:	e28dc020 	add	ip, sp, #32, 0
    c188:	e28d3088 	add	r3, sp, #136, 0	; 0x88
    c18c:	e8930007 	ldm	r3, {r0, r1, r2}
    c190:	e88c0007 	stm	ip, {r0, r1, r2}
    c194:	e28d302c 	add	r3, sp, #44, 0	; 0x2c
    c198:	e8960007 	ldm	r6, {r0, r1, r2}
    c19c:	e8830007 	stm	r3, {r0, r1, r2}
    c1a0:	e1a0e004 	mov	lr, r4
    c1a4:	e8bc000f 	ldm	ip!, {r0, r1, r2, r3}
    c1a8:	e8ae000f 	stmia	lr!, {r0, r1, r2, r3}
    c1ac:	e89c0003 	ldm	ip, {r0, r1}
    c1b0:	e88e0003 	stm	lr, {r0, r1}
    c1b4:	e8950007 	ldm	r5, {r0, r1, r2}
    c1b8:	e8880007 	stm	r8, {r0, r1, r2}
    c1bc:	e59d109c 	ldr	r1, [sp, #156]	; 0x9c
    c1c0:	e59d0098 	ldr	r0, [sp, #152]	; 0x98
    c1c4:	e88d0003 	stm	sp, {r0, r1}
    c1c8:	e59d3094 	ldr	r3, [sp, #148]	; 0x94
    c1cc:	e284200c 	add	r2, r4, #12, 0
    c1d0:	e8920007 	ldm	r2, {r0, r1, r2}
    c1d4:	ebfff5f8 	bl	99bc <vec3_dot>
    c1d8:	e3a04001 	mov	r4, #1, 0
    c1dc:	e3a01000 	mov	r1, #0, 0
    c1e0:	eb0005fe 	bl	d9e0 <__aeabi_fcmpgt>
    c1e4:	e3500000 	cmp	r0, #0, 0
    c1e8:	03a04000 	moveq	r4, #0, 0
    c1ec:	e1a00004 	mov	r0, r4
    c1f0:	e28dd050 	add	sp, sp, #80, 0	; 0x50
    c1f4:	e8bd41f0 	pop	{r4, r5, r6, r7, r8, lr}
    c1f8:	e28dd008 	add	sp, sp, #8, 0
    c1fc:	e12fff1e 	bx	lr

0000c200 <reflectance>:
    c200:	e92d47f0 	push	{r4, r5, r6, r7, r8, r9, sl, lr}
    c204:	e1a0a000 	mov	sl, r0
    c208:	e1a00001 	mov	r0, r1
    c20c:	eb000252 	bl	cb5c <__aeabi_f2d>
    c210:	e1a04000 	mov	r4, r0
    c214:	e1a05001 	mov	r5, r1
    c218:	e1a02000 	mov	r2, r0
    c21c:	e1a03001 	mov	r3, r1
    c220:	e3a00000 	mov	r0, #0, 0
    c224:	e59f1108 	ldr	r1, [pc, #264]	; c334 <reflectance+0x134>
    c228:	eb000173 	bl	c7fc <__aeabi_dsub>
    c22c:	e1a06000 	mov	r6, r0
    c230:	e1a07001 	mov	r7, r1
    c234:	e3a02000 	mov	r2, #0, 0
    c238:	e59f30f4 	ldr	r3, [pc, #244]	; c334 <reflectance+0x134>
    c23c:	e1a00004 	mov	r0, r4
    c240:	e1a01005 	mov	r1, r5
    c244:	eb00016d 	bl	c800 <__adddf3>
    c248:	e1a02000 	mov	r2, r0
    c24c:	e1a03001 	mov	r3, r1
    c250:	e1a00006 	mov	r0, r6
    c254:	e1a01007 	mov	r1, r7
    c258:	eb000310 	bl	cea0 <__aeabi_ddiv>
    c25c:	eb00040f 	bl	d2a0 <__aeabi_d2f>
    c260:	e1a01000 	mov	r1, r0
    c264:	eb0004e0 	bl	d5ec <__aeabi_fmul>
    c268:	eb00023b 	bl	cb5c <__aeabi_f2d>
    c26c:	e1a06000 	mov	r6, r0
    c270:	e1a07001 	mov	r7, r1
    c274:	e1a02000 	mov	r2, r0
    c278:	e1a03001 	mov	r3, r1
    c27c:	e3a00000 	mov	r0, #0, 0
    c280:	e59f10ac 	ldr	r1, [pc, #172]	; c334 <reflectance+0x134>
    c284:	eb00015c 	bl	c7fc <__aeabi_dsub>
    c288:	e1a08000 	mov	r8, r0
    c28c:	e1a09001 	mov	r9, r1
    c290:	e1a0000a 	mov	r0, sl
    c294:	eb000230 	bl	cb5c <__aeabi_f2d>
    c298:	e1a02000 	mov	r2, r0
    c29c:	e1a03001 	mov	r3, r1
    c2a0:	e3a00000 	mov	r0, #0, 0
    c2a4:	e59f1088 	ldr	r1, [pc, #136]	; c334 <reflectance+0x134>
    c2a8:	eb000153 	bl	c7fc <__aeabi_dsub>
    c2ac:	e1a04000 	mov	r4, r0
    c2b0:	e1a05001 	mov	r5, r1
    c2b4:	e1a02000 	mov	r2, r0
    c2b8:	e1a03001 	mov	r3, r1
    c2bc:	e1a00008 	mov	r0, r8
    c2c0:	e1a01009 	mov	r1, r9
    c2c4:	eb000251 	bl	cc10 <__aeabi_dmul>
    c2c8:	e1a02000 	mov	r2, r0
    c2cc:	e1a03001 	mov	r3, r1
    c2d0:	e1a00004 	mov	r0, r4
    c2d4:	e1a01005 	mov	r1, r5
    c2d8:	eb00024c 	bl	cc10 <__aeabi_dmul>
    c2dc:	e1a02000 	mov	r2, r0
    c2e0:	e1a03001 	mov	r3, r1
    c2e4:	e1a00004 	mov	r0, r4
    c2e8:	e1a01005 	mov	r1, r5
    c2ec:	eb000247 	bl	cc10 <__aeabi_dmul>
    c2f0:	e1a02000 	mov	r2, r0
    c2f4:	e1a03001 	mov	r3, r1
    c2f8:	e1a00004 	mov	r0, r4
    c2fc:	e1a01005 	mov	r1, r5
    c300:	eb000242 	bl	cc10 <__aeabi_dmul>
    c304:	e1a02000 	mov	r2, r0
    c308:	e1a03001 	mov	r3, r1
    c30c:	e1a00004 	mov	r0, r4
    c310:	e1a01005 	mov	r1, r5
    c314:	eb00023d 	bl	cc10 <__aeabi_dmul>
    c318:	e1a02000 	mov	r2, r0
    c31c:	e1a03001 	mov	r3, r1
    c320:	e1a00006 	mov	r0, r6
    c324:	e1a01007 	mov	r1, r7
    c328:	eb000134 	bl	c800 <__adddf3>
    c32c:	eb0003db 	bl	d2a0 <__aeabi_d2f>
    c330:	e8bd87f0 	pop	{r4, r5, r6, r7, r8, r9, sl, pc}
    c334:	3ff00000 	.word	0x3ff00000

0000c338 <dielectric_scatter>:
    c338:	e92d41f0 	push	{r4, r5, r6, r7, r8, lr}
    c33c:	e24dd060 	sub	sp, sp, #96, 0	; 0x60
    c340:	e1a06000 	mov	r6, r0
    c344:	e1a05001 	mov	r5, r1
    c348:	e1a0c002 	mov	ip, r2
    c34c:	e1a04003 	mov	r4, r3
    c350:	e59de078 	ldr	lr, [sp, #120]	; 0x78
    c354:	e59f3170 	ldr	r3, [pc, #368]	; c4cc <dielectric_scatter+0x194>
    c358:	e8930007 	ldm	r3, {r0, r1, r2}
    c35c:	e88c0007 	stm	ip, {r0, r1, r2}
    c360:	e595301c 	ldr	r3, [r5, #28]
    c364:	e3530000 	cmp	r3, #0, 0
    c368:	0a00003e 	beq	c468 <dielectric_scatter+0x130>
    c36c:	e59e0000 	ldr	r0, [lr]
    c370:	eb0001f9 	bl	cb5c <__aeabi_f2d>
    c374:	e1a02000 	mov	r2, r0
    c378:	e1a03001 	mov	r3, r1
    c37c:	e3a00000 	mov	r0, #0, 0
    c380:	e59f1148 	ldr	r1, [pc, #328]	; c4d0 <dielectric_scatter+0x198>
    c384:	eb0002c5 	bl	cea0 <__aeabi_ddiv>
    c388:	eb0003c4 	bl	d2a0 <__aeabi_d2f>
    c38c:	e1a08000 	mov	r8, r0
    c390:	e28d7048 	add	r7, sp, #72, 0	; 0x48
    c394:	e286300c 	add	r3, r6, #12, 0
    c398:	e893000e 	ldm	r3, {r1, r2, r3}
    c39c:	e1a00007 	mov	r0, r7
    c3a0:	ebfff5f1 	bl	9b6c <vec3_normalize>
    c3a4:	e28d6054 	add	r6, sp, #84, 0	; 0x54
    c3a8:	e897000e 	ldm	r7, {r1, r2, r3}
    c3ac:	e1a00006 	mov	r0, r6
    c3b0:	ebfff5c0 	bl	9ab8 <vec3_negate>
    c3b4:	e5951018 	ldr	r1, [r5, #24]
    c3b8:	e5950014 	ldr	r0, [r5, #20]
    c3bc:	e88d0003 	stm	sp, {r0, r1}
    c3c0:	e5953010 	ldr	r3, [r5, #16]
    c3c4:	e8960007 	ldm	r6, {r0, r1, r2}
    c3c8:	ebfff57b 	bl	99bc <vec3_dot>
    c3cc:	e3a075fe 	mov	r7, #1065353216	; 0x3f800000
    c3d0:	e1a01007 	mov	r1, r7
    c3d4:	ebfff6d6 	bl	9f34 <vec3_fmin>
    c3d8:	e1a06000 	mov	r6, r0
    c3dc:	e1a01000 	mov	r1, r0
    c3e0:	eb000481 	bl	d5ec <__aeabi_fmul>
    c3e4:	e1a01000 	mov	r1, r0
    c3e8:	e1a00007 	mov	r0, r7
    c3ec:	eb0003d5 	bl	d348 <__aeabi_fsub>
    c3f0:	ebfffe89 	bl	be1c <sqrtf_babylonian>
    c3f4:	e1a01000 	mov	r1, r0
    c3f8:	e1a00008 	mov	r0, r8
    c3fc:	eb00047a 	bl	d5ec <__aeabi_fmul>
    c400:	e1a01007 	mov	r1, r7
    c404:	eb000575 	bl	d9e0 <__aeabi_fcmpgt>
    c408:	e3500000 	cmp	r0, #0, 0
    c40c:	0a000017 	beq	c470 <dielectric_scatter+0x138>
    c410:	e2853010 	add	r3, r5, #16, 0
    c414:	e8930007 	ldm	r3, {r0, r1, r2}
    c418:	e88d0007 	stm	sp, {r0, r1, r2}
    c41c:	e28d3048 	add	r3, sp, #72, 0	; 0x48
    c420:	e893000e 	ldm	r3, {r1, r2, r3}
    c424:	e28d003c 	add	r0, sp, #60, 0	; 0x3c
    c428:	ebfff6a6 	bl	9ec8 <vec3_reflect>
    c42c:	e28dc024 	add	ip, sp, #36, 0	; 0x24
    c430:	e9950007 	ldmib	r5, {r0, r1, r2}
    c434:	e88c0007 	stm	ip, {r0, r1, r2}
    c438:	e28d3030 	add	r3, sp, #48, 0	; 0x30
    c43c:	e28d203c 	add	r2, sp, #60, 0	; 0x3c
    c440:	e8920007 	ldm	r2, {r0, r1, r2}
    c444:	e8830007 	stm	r3, {r0, r1, r2}
    c448:	e1a0e004 	mov	lr, r4
    c44c:	e8bc000f 	ldm	ip!, {r0, r1, r2, r3}
    c450:	e8ae000f 	stmia	lr!, {r0, r1, r2, r3}
    c454:	e89c0003 	ldm	ip, {r0, r1}
    c458:	e88e0003 	stm	lr, {r0, r1}
    c45c:	e3a00001 	mov	r0, #1, 0
    c460:	e28dd060 	add	sp, sp, #96, 0	; 0x60
    c464:	e8bd81f0 	pop	{r4, r5, r6, r7, r8, pc}
    c468:	e59e8000 	ldr	r8, [lr]
    c46c:	eaffffc7 	b	c390 <dielectric_scatter+0x58>
    c470:	e1a01008 	mov	r1, r8
    c474:	e1a00006 	mov	r0, r6
    c478:	ebffff60 	bl	c200 <reflectance>
    c47c:	e1a06000 	mov	r6, r0
    c480:	ebfffeac 	bl	bf38 <random_float>
    c484:	e1a01000 	mov	r1, r0
    c488:	e1a00006 	mov	r0, r6
    c48c:	eb000553 	bl	d9e0 <__aeabi_fcmpgt>
    c490:	e3500000 	cmp	r0, #0, 0
    c494:	1affffdd 	bne	c410 <dielectric_scatter+0xd8>
    c498:	e28d6010 	add	r6, sp, #16, 0
    c49c:	e58d800c 	str	r8, [sp, #12]
    c4a0:	e2853010 	add	r3, r5, #16, 0
    c4a4:	e8930007 	ldm	r3, {r0, r1, r2}
    c4a8:	e88d0007 	stm	sp, {r0, r1, r2}
    c4ac:	e28d3048 	add	r3, sp, #72, 0	; 0x48
    c4b0:	e893000e 	ldm	r3, {r1, r2, r3}
    c4b4:	e1a00006 	mov	r0, r6
    c4b8:	ebfff6a5 	bl	9f54 <vec3_refract>
    c4bc:	e28d303c 	add	r3, sp, #60, 0	; 0x3c
    c4c0:	e8960007 	ldm	r6, {r0, r1, r2}
    c4c4:	e8830007 	stm	r3, {r0, r1, r2}
    c4c8:	eaffffd7 	b	c42c <dielectric_scatter+0xf4>
    c4cc:	0000eaa0 	.word	0x0000eaa0
    c4d0:	3ff00000 	.word	0x3ff00000

0000c4d4 <scatter>:
    c4d4:	e52de004 	push	{lr}		; (str lr, [sp, #-4]!)
    c4d8:	e24dd054 	sub	sp, sp, #84, 0	; 0x54
    c4dc:	e28dc050 	add	ip, sp, #80, 0	; 0x50
    c4e0:	e90c000f 	stmdb	ip, {r0, r1, r2, r3}
    c4e4:	e5dd3040 	ldrb	r3, [sp, #64]	; 0x40
    c4e8:	e3530001 	cmp	r3, #1, 0
    c4ec:	0a00001d 	beq	c568 <scatter+0x94>
    c4f0:	e3530002 	cmp	r3, #2, 0
    c4f4:	0a000032 	beq	c5c4 <scatter+0xf0>
    c4f8:	e3530000 	cmp	r3, #0, 0
    c4fc:	0a000002 	beq	c50c <scatter+0x38>
    c500:	e3a00000 	mov	r0, #0, 0
    c504:	e28dd054 	add	sp, sp, #84, 0	; 0x54
    c508:	e49df004 	pop	{pc}		; (ldr pc, [sp], #4)
    c50c:	e59d3098 	ldr	r3, [sp, #152]	; 0x98
    c510:	e58d303c 	str	r3, [sp, #60]	; 0x3c
    c514:	e59d3094 	ldr	r3, [sp, #148]	; 0x94
    c518:	e58d3038 	str	r3, [sp, #56]	; 0x38
    c51c:	e28dc014 	add	ip, sp, #20, 0
    c520:	e28de070 	add	lr, sp, #112, 0	; 0x70
    c524:	e8be000f 	ldm	lr!, {r0, r1, r2, r3}
    c528:	e8ac000f 	stmia	ip!, {r0, r1, r2, r3}
    c52c:	e8be000f 	ldm	lr!, {r0, r1, r2, r3}
    c530:	e8ac000f 	stmia	ip!, {r0, r1, r2, r3}
    c534:	e59e3000 	ldr	r3, [lr]
    c538:	e58c3000 	str	r3, [ip]
    c53c:	e1a0c00d 	mov	ip, sp
    c540:	e28de05c 	add	lr, sp, #92, 0	; 0x5c
    c544:	e8be000f 	ldm	lr!, {r0, r1, r2, r3}
    c548:	e8ac000f 	stmia	ip!, {r0, r1, r2, r3}
    c54c:	e59e3000 	ldr	r3, [lr]
    c550:	e58c3000 	str	r3, [ip]
    c554:	e59d3058 	ldr	r3, [sp, #88]	; 0x58
    c558:	e28d2050 	add	r2, sp, #80, 0	; 0x50
    c55c:	e9120007 	ldmdb	r2, {r0, r1, r2}
    c560:	ebfffecd 	bl	c09c <lambertian_scatter>
    c564:	eaffffe6 	b	c504 <scatter+0x30>
    c568:	e59d3098 	ldr	r3, [sp, #152]	; 0x98
    c56c:	e58d303c 	str	r3, [sp, #60]	; 0x3c
    c570:	e59d3094 	ldr	r3, [sp, #148]	; 0x94
    c574:	e58d3038 	str	r3, [sp, #56]	; 0x38
    c578:	e28dc014 	add	ip, sp, #20, 0
    c57c:	e28de070 	add	lr, sp, #112, 0	; 0x70
    c580:	e8be000f 	ldm	lr!, {r0, r1, r2, r3}
    c584:	e8ac000f 	stmia	ip!, {r0, r1, r2, r3}
    c588:	e8be000f 	ldm	lr!, {r0, r1, r2, r3}
    c58c:	e8ac000f 	stmia	ip!, {r0, r1, r2, r3}
    c590:	e59e3000 	ldr	r3, [lr]
    c594:	e58c3000 	str	r3, [ip]
    c598:	e1a0c00d 	mov	ip, sp
    c59c:	e28de05c 	add	lr, sp, #92, 0	; 0x5c
    c5a0:	e8be000f 	ldm	lr!, {r0, r1, r2, r3}
    c5a4:	e8ac000f 	stmia	ip!, {r0, r1, r2, r3}
    c5a8:	e59e3000 	ldr	r3, [lr]
    c5ac:	e58c3000 	str	r3, [ip]
    c5b0:	e59d3058 	ldr	r3, [sp, #88]	; 0x58
    c5b4:	e28d2050 	add	r2, sp, #80, 0	; 0x50
    c5b8:	e9120007 	ldmdb	r2, {r0, r1, r2}
    c5bc:	ebfffedc 	bl	c134 <metal_scatter>
    c5c0:	eaffffcf 	b	c504 <scatter+0x30>
    c5c4:	e28d3044 	add	r3, sp, #68, 0	; 0x44
    c5c8:	e58d3000 	str	r3, [sp]
    c5cc:	e59d3098 	ldr	r3, [sp, #152]	; 0x98
    c5d0:	e59d2094 	ldr	r2, [sp, #148]	; 0x94
    c5d4:	e28d1070 	add	r1, sp, #112, 0	; 0x70
    c5d8:	e28d0058 	add	r0, sp, #88, 0	; 0x58
    c5dc:	ebffff55 	bl	c338 <dielectric_scatter>
    c5e0:	eaffffc7 	b	c504 <scatter+0x30>

0000c5e4 <ray_at>:
    c5e4:	e24dd010 	sub	sp, sp, #16, 0
    c5e8:	e92d4070 	push	{r4, r5, r6, lr}
    c5ec:	e24dd020 	sub	sp, sp, #32, 0
    c5f0:	e1a05000 	mov	r5, r0
    c5f4:	e28d4034 	add	r4, sp, #52, 0	; 0x34
    c5f8:	e884000e 	stm	r4, {r1, r2, r3}
    c5fc:	e28d6014 	add	r6, sp, #20, 0
    c600:	e1cd05d0 	ldrd	r0, [sp, #80]	; 0x50
    c604:	eb000325 	bl	d2a0 <__aeabi_d2f>
    c608:	e58d0000 	str	r0, [sp]
    c60c:	e28d3040 	add	r3, sp, #64, 0	; 0x40
    c610:	e893000e 	ldm	r3, {r1, r2, r3}
    c614:	e1a00006 	mov	r0, r6
    c618:	ebfff502 	bl	9a28 <vec3_multiply>
    c61c:	e8960007 	ldm	r6, {r0, r1, r2}
    c620:	e88d0007 	stm	sp, {r0, r1, r2}
    c624:	e894000e 	ldm	r4, {r1, r2, r3}
    c628:	e1a00005 	mov	r0, r5
    c62c:	ebfff48b 	bl	9860 <vec3_add>
    c630:	e1a00005 	mov	r0, r5
    c634:	e28dd020 	add	sp, sp, #32, 0
    c638:	e8bd4070 	pop	{r4, r5, r6, lr}
    c63c:	e28dd010 	add	sp, sp, #16, 0
    c640:	e12fff1e 	bx	lr

0000c644 <hit_record_set_face_normal>:
    c644:	e24dd010 	sub	sp, sp, #16, 0
    c648:	e92d4030 	push	{r4, r5, lr}
    c64c:	e24dd01c 	sub	sp, sp, #28, 0
    c650:	e1a04000 	mov	r4, r0
    c654:	e28d002c 	add	r0, sp, #44, 0	; 0x2c
    c658:	e880000e 	stm	r0, {r1, r2, r3}
    c65c:	e59d104c 	ldr	r1, [sp, #76]	; 0x4c
    c660:	e59d0048 	ldr	r0, [sp, #72]	; 0x48
    c664:	e88d0003 	stm	sp, {r0, r1}
    c668:	e59d3044 	ldr	r3, [sp, #68]	; 0x44
    c66c:	e28d2038 	add	r2, sp, #56, 0	; 0x38
    c670:	e8920007 	ldm	r2, {r0, r1, r2}
    c674:	ebfff4d0 	bl	99bc <vec3_dot>
    c678:	e3a05001 	mov	r5, #1, 0
    c67c:	e3a01000 	mov	r1, #0, 0
    c680:	eb0004c4 	bl	d998 <__aeabi_fcmplt>
    c684:	e3500000 	cmp	r0, #0, 0
    c688:	03a05000 	moveq	r5, #0, 0
    c68c:	e584501c 	str	r5, [r4, #28]
    c690:	e3550000 	cmp	r5, #0, 0
    c694:	0a000007 	beq	c6b8 <hit_record_set_face_normal+0x74>
    c698:	e2844010 	add	r4, r4, #16, 0
    c69c:	e28d3044 	add	r3, sp, #68, 0	; 0x44
    c6a0:	e8930007 	ldm	r3, {r0, r1, r2}
    c6a4:	e8840007 	stm	r4, {r0, r1, r2}
    c6a8:	e28dd01c 	add	sp, sp, #28, 0
    c6ac:	e8bd4030 	pop	{r4, r5, lr}
    c6b0:	e28dd010 	add	sp, sp, #16, 0
    c6b4:	e12fff1e 	bx	lr
    c6b8:	e28d5008 	add	r5, sp, #8, 0
    c6bc:	e28d3044 	add	r3, sp, #68, 0	; 0x44
    c6c0:	e893000e 	ldm	r3, {r1, r2, r3}
    c6c4:	e1a00005 	mov	r0, r5
    c6c8:	ebfff4fa 	bl	9ab8 <vec3_negate>
    c6cc:	e2844010 	add	r4, r4, #16, 0
    c6d0:	e8950007 	ldm	r5, {r0, r1, r2}
    c6d4:	e8840007 	stm	r4, {r0, r1, r2}
    c6d8:	eafffff2 	b	c6a8 <hit_record_set_face_normal+0x64>

0000c6dc <__udivsi3>:
    c6dc:	e2512001 	subs	r2, r1, #1, 0
    c6e0:	012fff1e 	bxeq	lr
    c6e4:	3a000036 	bcc	c7c4 <__udivsi3+0xe8>
    c6e8:	e1500001 	cmp	r0, r1
    c6ec:	9a000022 	bls	c77c <__udivsi3+0xa0>
    c6f0:	e1110002 	tst	r1, r2
    c6f4:	0a000023 	beq	c788 <__udivsi3+0xac>
    c6f8:	e311020e 	tst	r1, #-536870912	; 0xe0000000
    c6fc:	01a01181 	lsleq	r1, r1, #3
    c700:	03a03008 	moveq	r3, #8, 0
    c704:	13a03001 	movne	r3, #1, 0
    c708:	e3510201 	cmp	r1, #268435456	; 0x10000000
    c70c:	31510000 	cmpcc	r1, r0
    c710:	31a01201 	lslcc	r1, r1, #4
    c714:	31a03203 	lslcc	r3, r3, #4
    c718:	3afffffa 	bcc	c708 <__udivsi3+0x2c>
    c71c:	e3510102 	cmp	r1, #-2147483648	; 0x80000000
    c720:	31510000 	cmpcc	r1, r0
    c724:	31a01081 	lslcc	r1, r1, #1
    c728:	31a03083 	lslcc	r3, r3, #1
    c72c:	3afffffa 	bcc	c71c <__udivsi3+0x40>
    c730:	e3a02000 	mov	r2, #0, 0
    c734:	e1500001 	cmp	r0, r1
    c738:	20400001 	subcs	r0, r0, r1
    c73c:	21822003 	orrcs	r2, r2, r3
    c740:	e15000a1 	cmp	r0, r1, lsr #1
    c744:	204000a1 	subcs	r0, r0, r1, lsr #1
    c748:	218220a3 	orrcs	r2, r2, r3, lsr #1
    c74c:	e1500121 	cmp	r0, r1, lsr #2
    c750:	20400121 	subcs	r0, r0, r1, lsr #2
    c754:	21822123 	orrcs	r2, r2, r3, lsr #2
    c758:	e15001a1 	cmp	r0, r1, lsr #3
    c75c:	204001a1 	subcs	r0, r0, r1, lsr #3
    c760:	218221a3 	orrcs	r2, r2, r3, lsr #3
    c764:	e3500000 	cmp	r0, #0, 0
    c768:	11b03223 	lsrsne	r3, r3, #4
    c76c:	11a01221 	lsrne	r1, r1, #4
    c770:	1affffef 	bne	c734 <__udivsi3+0x58>
    c774:	e1a00002 	mov	r0, r2
    c778:	e12fff1e 	bx	lr
    c77c:	03a00001 	moveq	r0, #1, 0
    c780:	13a00000 	movne	r0, #0, 0
    c784:	e12fff1e 	bx	lr
    c788:	e3510801 	cmp	r1, #65536	; 0x10000
    c78c:	21a01821 	lsrcs	r1, r1, #16
    c790:	23a02010 	movcs	r2, #16, 0
    c794:	33a02000 	movcc	r2, #0, 0
    c798:	e3510c01 	cmp	r1, #256	; 0x100
    c79c:	21a01421 	lsrcs	r1, r1, #8
    c7a0:	22822008 	addcs	r2, r2, #8, 0
    c7a4:	e3510010 	cmp	r1, #16, 0
    c7a8:	21a01221 	lsrcs	r1, r1, #4
    c7ac:	22822004 	addcs	r2, r2, #4, 0
    c7b0:	e3510004 	cmp	r1, #4, 0
    c7b4:	82822003 	addhi	r2, r2, #3, 0
    c7b8:	908220a1 	addls	r2, r2, r1, lsr #1
    c7bc:	e1a00230 	lsr	r0, r0, r2
    c7c0:	e12fff1e 	bx	lr
    c7c4:	e3500000 	cmp	r0, #0, 0
    c7c8:	13e00000 	mvnne	r0, #0, 0
    c7cc:	ea000007 	b	c7f0 <__aeabi_idiv0>

0000c7d0 <__aeabi_uidivmod>:
    c7d0:	e3510000 	cmp	r1, #0, 0
    c7d4:	0afffffa 	beq	c7c4 <__udivsi3+0xe8>
    c7d8:	e92d4003 	push	{r0, r1, lr}
    c7dc:	ebffffbe 	bl	c6dc <__udivsi3>
    c7e0:	e8bd4006 	pop	{r1, r2, lr}
    c7e4:	e0030092 	mul	r3, r2, r0
    c7e8:	e0411003 	sub	r1, r1, r3
    c7ec:	e12fff1e 	bx	lr

0000c7f0 <__aeabi_idiv0>:
    c7f0:	e12fff1e 	bx	lr

0000c7f4 <__aeabi_drsub>:
    c7f4:	e2211102 	eor	r1, r1, #-2147483648	; 0x80000000
    c7f8:	ea000000 	b	c800 <__adddf3>

0000c7fc <__aeabi_dsub>:
    c7fc:	e2233102 	eor	r3, r3, #-2147483648	; 0x80000000

0000c800 <__adddf3>:
    c800:	e92d4030 	push	{r4, r5, lr}
    c804:	e1a04081 	lsl	r4, r1, #1
    c808:	e1a05083 	lsl	r5, r3, #1
    c80c:	e1340005 	teq	r4, r5
    c810:	01300002 	teqeq	r0, r2
    c814:	1194c000 	orrsne	ip, r4, r0
    c818:	1195c002 	orrsne	ip, r5, r2
    c81c:	11f0cac4 	mvnsne	ip, r4, asr #21
    c820:	11f0cac5 	mvnsne	ip, r5, asr #21
    c824:	0a00008c 	beq	ca5c <__adddf3+0x25c>
    c828:	e1a04aa4 	lsr	r4, r4, #21
    c82c:	e0745aa5 	rsbs	r5, r4, r5, lsr #21
    c830:	b2655000 	rsblt	r5, r5, #0, 0
    c834:	da000006 	ble	c854 <__adddf3+0x54>
    c838:	e0844005 	add	r4, r4, r5
    c83c:	e0202002 	eor	r2, r0, r2
    c840:	e0213003 	eor	r3, r1, r3
    c844:	e0220000 	eor	r0, r2, r0
    c848:	e0231001 	eor	r1, r3, r1
    c84c:	e0202002 	eor	r2, r0, r2
    c850:	e0213003 	eor	r3, r1, r3
    c854:	e3550036 	cmp	r5, #54, 0	; 0x36
    c858:	88bd4030 	pophi	{r4, r5, lr}
    c85c:	812fff1e 	bxhi	lr
    c860:	e3110102 	tst	r1, #-2147483648	; 0x80000000
    c864:	e1a01601 	lsl	r1, r1, #12
    c868:	e3a0c601 	mov	ip, #1048576	; 0x100000
    c86c:	e18c1621 	orr	r1, ip, r1, lsr #12
    c870:	0a000001 	beq	c87c <__adddf3+0x7c>
    c874:	e2700000 	rsbs	r0, r0, #0, 0
    c878:	e2e11000 	rsc	r1, r1, #0, 0
    c87c:	e3130102 	tst	r3, #-2147483648	; 0x80000000
    c880:	e1a03603 	lsl	r3, r3, #12
    c884:	e18c3623 	orr	r3, ip, r3, lsr #12
    c888:	0a000001 	beq	c894 <__adddf3+0x94>
    c88c:	e2722000 	rsbs	r2, r2, #0, 0
    c890:	e2e33000 	rsc	r3, r3, #0, 0
    c894:	e1340005 	teq	r4, r5
    c898:	0a000069 	beq	ca44 <__adddf3+0x244>
    c89c:	e2444001 	sub	r4, r4, #1, 0
    c8a0:	e275e020 	rsbs	lr, r5, #32, 0
    c8a4:	ba000005 	blt	c8c0 <__adddf3+0xc0>
    c8a8:	e1a0ce12 	lsl	ip, r2, lr
    c8ac:	e0900532 	adds	r0, r0, r2, lsr r5
    c8b0:	e2a11000 	adc	r1, r1, #0, 0
    c8b4:	e0900e13 	adds	r0, r0, r3, lsl lr
    c8b8:	e0b11553 	adcs	r1, r1, r3, asr r5
    c8bc:	ea000006 	b	c8dc <__adddf3+0xdc>
    c8c0:	e2455020 	sub	r5, r5, #32, 0
    c8c4:	e28ee020 	add	lr, lr, #32, 0
    c8c8:	e3520001 	cmp	r2, #1, 0
    c8cc:	e1a0ce13 	lsl	ip, r3, lr
    c8d0:	238cc002 	orrcs	ip, ip, #2, 0
    c8d4:	e0900553 	adds	r0, r0, r3, asr r5
    c8d8:	e0b11fc3 	adcs	r1, r1, r3, asr #31
    c8dc:	e2015102 	and	r5, r1, #-2147483648	; 0x80000000
    c8e0:	5a000002 	bpl	c8f0 <__adddf3+0xf0>
    c8e4:	e27cc000 	rsbs	ip, ip, #0, 0
    c8e8:	e2f00000 	rscs	r0, r0, #0, 0
    c8ec:	e2e11000 	rsc	r1, r1, #0, 0
    c8f0:	e3510601 	cmp	r1, #1048576	; 0x100000
    c8f4:	3a00000f 	bcc	c938 <__adddf3+0x138>
    c8f8:	e3510602 	cmp	r1, #2097152	; 0x200000
    c8fc:	3a000006 	bcc	c91c <__adddf3+0x11c>
    c900:	e1b010a1 	lsrs	r1, r1, #1
    c904:	e1b00060 	rrxs	r0, r0
    c908:	e1a0c06c 	rrx	ip, ip
    c90c:	e2844001 	add	r4, r4, #1, 0
    c910:	e1a02a84 	lsl	r2, r4, #21
    c914:	e3720501 	cmn	r2, #4194304	; 0x400000
    c918:	2a00006b 	bcs	cacc <__adddf3+0x2cc>
    c91c:	e35c0102 	cmp	ip, #-2147483648	; 0x80000000
    c920:	01b0c0a0 	lsrseq	ip, r0, #1
    c924:	e2b00000 	adcs	r0, r0, #0, 0
    c928:	e0a11a04 	adc	r1, r1, r4, lsl #20
    c92c:	e1811005 	orr	r1, r1, r5
    c930:	e8bd4030 	pop	{r4, r5, lr}
    c934:	e12fff1e 	bx	lr
    c938:	e1b0c08c 	lsls	ip, ip, #1
    c93c:	e0b00000 	adcs	r0, r0, r0
    c940:	e0a11001 	adc	r1, r1, r1
    c944:	e3110601 	tst	r1, #1048576	; 0x100000
    c948:	e2444001 	sub	r4, r4, #1, 0
    c94c:	1afffff2 	bne	c91c <__adddf3+0x11c>
    c950:	e3310000 	teq	r1, #0, 0
    c954:	13a03014 	movne	r3, #20, 0
    c958:	03a03034 	moveq	r3, #52, 0	; 0x34
    c95c:	01a01000 	moveq	r1, r0
    c960:	03a00000 	moveq	r0, #0, 0
    c964:	e1a02001 	mov	r2, r1
    c968:	e3520801 	cmp	r2, #65536	; 0x10000
    c96c:	21a02822 	lsrcs	r2, r2, #16
    c970:	22433010 	subcs	r3, r3, #16, 0
    c974:	e3520c01 	cmp	r2, #256	; 0x100
    c978:	21a02422 	lsrcs	r2, r2, #8
    c97c:	22433008 	subcs	r3, r3, #8, 0
    c980:	e3520010 	cmp	r2, #16, 0
    c984:	21a02222 	lsrcs	r2, r2, #4
    c988:	22433004 	subcs	r3, r3, #4, 0
    c98c:	e3520004 	cmp	r2, #4, 0
    c990:	22433002 	subcs	r3, r3, #2, 0
    c994:	304330a2 	subcc	r3, r3, r2, lsr #1
    c998:	e04331a2 	sub	r3, r3, r2, lsr #3
    c99c:	e2532020 	subs	r2, r3, #32, 0
    c9a0:	aa000007 	bge	c9c4 <__adddf3+0x1c4>
    c9a4:	e292200c 	adds	r2, r2, #12, 0
    c9a8:	da000004 	ble	c9c0 <__adddf3+0x1c0>
    c9ac:	e282c014 	add	ip, r2, #20, 0
    c9b0:	e262200c 	rsb	r2, r2, #12, 0
    c9b4:	e1a00c11 	lsl	r0, r1, ip
    c9b8:	e1a01231 	lsr	r1, r1, r2
    c9bc:	ea000004 	b	c9d4 <__adddf3+0x1d4>
    c9c0:	e2822014 	add	r2, r2, #20, 0
    c9c4:	d262c020 	rsble	ip, r2, #32, 0
    c9c8:	e1a01211 	lsl	r1, r1, r2
    c9cc:	d1811c30 	orrle	r1, r1, r0, lsr ip
    c9d0:	d1a00210 	lslle	r0, r0, r2
    c9d4:	e0544003 	subs	r4, r4, r3
    c9d8:	a0811a04 	addge	r1, r1, r4, lsl #20
    c9dc:	a1811005 	orrge	r1, r1, r5
    c9e0:	a8bd4030 	popge	{r4, r5, lr}
    c9e4:	a12fff1e 	bxge	lr
    c9e8:	e1e04004 	mvn	r4, r4
    c9ec:	e254401f 	subs	r4, r4, #31, 0
    c9f0:	aa00000f 	bge	ca34 <__adddf3+0x234>
    c9f4:	e294400c 	adds	r4, r4, #12, 0
    c9f8:	ca000006 	bgt	ca18 <__adddf3+0x218>
    c9fc:	e2844014 	add	r4, r4, #20, 0
    ca00:	e2642020 	rsb	r2, r4, #32, 0
    ca04:	e1a00430 	lsr	r0, r0, r4
    ca08:	e1800211 	orr	r0, r0, r1, lsl r2
    ca0c:	e1851431 	orr	r1, r5, r1, lsr r4
    ca10:	e8bd4030 	pop	{r4, r5, lr}
    ca14:	e12fff1e 	bx	lr
    ca18:	e264400c 	rsb	r4, r4, #12, 0
    ca1c:	e2642020 	rsb	r2, r4, #32, 0
    ca20:	e1a00230 	lsr	r0, r0, r2
    ca24:	e1800411 	orr	r0, r0, r1, lsl r4
    ca28:	e1a01005 	mov	r1, r5
    ca2c:	e8bd4030 	pop	{r4, r5, lr}
    ca30:	e12fff1e 	bx	lr
    ca34:	e1a00431 	lsr	r0, r1, r4
    ca38:	e1a01005 	mov	r1, r5
    ca3c:	e8bd4030 	pop	{r4, r5, lr}
    ca40:	e12fff1e 	bx	lr
    ca44:	e3340000 	teq	r4, #0, 0
    ca48:	e2233601 	eor	r3, r3, #1048576	; 0x100000
    ca4c:	02211601 	eoreq	r1, r1, #1048576	; 0x100000
    ca50:	02844001 	addeq	r4, r4, #1, 0
    ca54:	12455001 	subne	r5, r5, #1, 0
    ca58:	eaffff8f 	b	c89c <__adddf3+0x9c>
    ca5c:	e1f0cac4 	mvns	ip, r4, asr #21
    ca60:	11f0cac5 	mvnsne	ip, r5, asr #21
    ca64:	0a00001d 	beq	cae0 <__adddf3+0x2e0>
    ca68:	e1340005 	teq	r4, r5
    ca6c:	01300002 	teqeq	r0, r2
    ca70:	0a000004 	beq	ca88 <__adddf3+0x288>
    ca74:	e194c000 	orrs	ip, r4, r0
    ca78:	01a01003 	moveq	r1, r3
    ca7c:	01a00002 	moveq	r0, r2
    ca80:	e8bd4030 	pop	{r4, r5, lr}
    ca84:	e12fff1e 	bx	lr
    ca88:	e1310003 	teq	r1, r3
    ca8c:	13a01000 	movne	r1, #0, 0
    ca90:	13a00000 	movne	r0, #0, 0
    ca94:	18bd4030 	popne	{r4, r5, lr}
    ca98:	112fff1e 	bxne	lr
    ca9c:	e1b0caa4 	lsrs	ip, r4, #21
    caa0:	1a000004 	bne	cab8 <__adddf3+0x2b8>
    caa4:	e1b00080 	lsls	r0, r0, #1
    caa8:	e0b11001 	adcs	r1, r1, r1
    caac:	23811102 	orrcs	r1, r1, #-2147483648	; 0x80000000
    cab0:	e8bd4030 	pop	{r4, r5, lr}
    cab4:	e12fff1e 	bx	lr
    cab8:	e2944501 	adds	r4, r4, #4194304	; 0x400000
    cabc:	32811601 	addcc	r1, r1, #1048576	; 0x100000
    cac0:	38bd4030 	popcc	{r4, r5, lr}
    cac4:	312fff1e 	bxcc	lr
    cac8:	e2015102 	and	r5, r1, #-2147483648	; 0x80000000
    cacc:	e385147f 	orr	r1, r5, #2130706432	; 0x7f000000
    cad0:	e381160f 	orr	r1, r1, #15728640	; 0xf00000
    cad4:	e3a00000 	mov	r0, #0, 0
    cad8:	e8bd4030 	pop	{r4, r5, lr}
    cadc:	e12fff1e 	bx	lr
    cae0:	e1f0cac4 	mvns	ip, r4, asr #21
    cae4:	11a01003 	movne	r1, r3
    cae8:	11a00002 	movne	r0, r2
    caec:	01f0cac5 	mvnseq	ip, r5, asr #21
    caf0:	11a03001 	movne	r3, r1
    caf4:	11a02000 	movne	r2, r0
    caf8:	e1904601 	orrs	r4, r0, r1, lsl #12
    cafc:	01925603 	orrseq	r5, r2, r3, lsl #12
    cb00:	01310003 	teqeq	r1, r3
    cb04:	13811702 	orrne	r1, r1, #524288	; 0x80000
    cb08:	e8bd4030 	pop	{r4, r5, lr}
    cb0c:	e12fff1e 	bx	lr

0000cb10 <__aeabi_ui2d>:
    cb10:	e3300000 	teq	r0, #0, 0
    cb14:	03a01000 	moveq	r1, #0, 0
    cb18:	012fff1e 	bxeq	lr
    cb1c:	e92d4030 	push	{r4, r5, lr}
    cb20:	e3a04b01 	mov	r4, #1024	; 0x400
    cb24:	e2844032 	add	r4, r4, #50, 0	; 0x32
    cb28:	e3a05000 	mov	r5, #0, 0
    cb2c:	e3a01000 	mov	r1, #0, 0
    cb30:	eaffff86 	b	c950 <__adddf3+0x150>

0000cb34 <__aeabi_i2d>:
    cb34:	e3300000 	teq	r0, #0, 0
    cb38:	03a01000 	moveq	r1, #0, 0
    cb3c:	012fff1e 	bxeq	lr
    cb40:	e92d4030 	push	{r4, r5, lr}
    cb44:	e3a04b01 	mov	r4, #1024	; 0x400
    cb48:	e2844032 	add	r4, r4, #50, 0	; 0x32
    cb4c:	e2105102 	ands	r5, r0, #-2147483648	; 0x80000000
    cb50:	42600000 	rsbmi	r0, r0, #0, 0
    cb54:	e3a01000 	mov	r1, #0, 0
    cb58:	eaffff7c 	b	c950 <__adddf3+0x150>

0000cb5c <__aeabi_f2d>:
    cb5c:	e1b02080 	lsls	r2, r0, #1
    cb60:	e1a011c2 	asr	r1, r2, #3
    cb64:	e1a01061 	rrx	r1, r1
    cb68:	e1a00e02 	lsl	r0, r2, #28
    cb6c:	121234ff 	andsne	r3, r2, #-16777216	; 0xff000000
    cb70:	133304ff 	teqne	r3, #-16777216	; 0xff000000
    cb74:	1221130e 	eorne	r1, r1, #939524096	; 0x38000000
    cb78:	112fff1e 	bxne	lr
    cb7c:	e3320000 	teq	r2, #0, 0
    cb80:	133304ff 	teqne	r3, #-16777216	; 0xff000000
    cb84:	012fff1e 	bxeq	lr
    cb88:	e92d4030 	push	{r4, r5, lr}
    cb8c:	e3a04d0e 	mov	r4, #896	; 0x380
    cb90:	e2015102 	and	r5, r1, #-2147483648	; 0x80000000
    cb94:	e3c11102 	bic	r1, r1, #-2147483648	; 0x80000000
    cb98:	eaffff6c 	b	c950 <__adddf3+0x150>

0000cb9c <__aeabi_ul2d>:
    cb9c:	e1902001 	orrs	r2, r0, r1
    cba0:	012fff1e 	bxeq	lr
    cba4:	e92d4030 	push	{r4, r5, lr}
    cba8:	e3a05000 	mov	r5, #0, 0
    cbac:	ea000006 	b	cbcc <__aeabi_l2d+0x1c>

0000cbb0 <__aeabi_l2d>:
    cbb0:	e1902001 	orrs	r2, r0, r1
    cbb4:	012fff1e 	bxeq	lr
    cbb8:	e92d4030 	push	{r4, r5, lr}
    cbbc:	e2115102 	ands	r5, r1, #-2147483648	; 0x80000000
    cbc0:	5a000001 	bpl	cbcc <__aeabi_l2d+0x1c>
    cbc4:	e2700000 	rsbs	r0, r0, #0, 0
    cbc8:	e2e11000 	rsc	r1, r1, #0, 0
    cbcc:	e3a04b01 	mov	r4, #1024	; 0x400
    cbd0:	e2844032 	add	r4, r4, #50, 0	; 0x32
    cbd4:	e1b0cb21 	lsrs	ip, r1, #22
    cbd8:	0affff44 	beq	c8f0 <__adddf3+0xf0>
    cbdc:	e3a02003 	mov	r2, #3, 0
    cbe0:	e1b0c1ac 	lsrs	ip, ip, #3
    cbe4:	12822003 	addne	r2, r2, #3, 0
    cbe8:	e1b0c1ac 	lsrs	ip, ip, #3
    cbec:	12822003 	addne	r2, r2, #3, 0
    cbf0:	e08221ac 	add	r2, r2, ip, lsr #3
    cbf4:	e2623020 	rsb	r3, r2, #32, 0
    cbf8:	e1a0c310 	lsl	ip, r0, r3
    cbfc:	e1a00230 	lsr	r0, r0, r2
    cc00:	e1800311 	orr	r0, r0, r1, lsl r3
    cc04:	e1a01231 	lsr	r1, r1, r2
    cc08:	e0844002 	add	r4, r4, r2
    cc0c:	eaffff37 	b	c8f0 <__adddf3+0xf0>

0000cc10 <__aeabi_dmul>:
    cc10:	e92d4070 	push	{r4, r5, r6, lr}
    cc14:	e3a0c0ff 	mov	ip, #255, 0	; 0xff
    cc18:	e38ccc07 	orr	ip, ip, #1792	; 0x700
    cc1c:	e01c4a21 	ands	r4, ip, r1, lsr #20
    cc20:	101c5a23 	andsne	r5, ip, r3, lsr #20
    cc24:	1134000c 	teqne	r4, ip
    cc28:	1135000c 	teqne	r5, ip
    cc2c:	0b000075 	bleq	ce08 <__aeabi_dmul+0x1f8>
    cc30:	e0844005 	add	r4, r4, r5
    cc34:	e0216003 	eor	r6, r1, r3
    cc38:	e1c11a8c 	bic	r1, r1, ip, lsl #21
    cc3c:	e1c33a8c 	bic	r3, r3, ip, lsl #21
    cc40:	e1905601 	orrs	r5, r0, r1, lsl #12
    cc44:	11925603 	orrsne	r5, r2, r3, lsl #12
    cc48:	e3811601 	orr	r1, r1, #1048576	; 0x100000
    cc4c:	e3833601 	orr	r3, r3, #1048576	; 0x100000
    cc50:	0a00001d 	beq	cccc <__aeabi_dmul+0xbc>
    cc54:	e08ec290 	umull	ip, lr, r0, r2
    cc58:	e3a05000 	mov	r5, #0, 0
    cc5c:	e0a5e291 	umlal	lr, r5, r1, r2
    cc60:	e2062102 	and	r2, r6, #-2147483648	; 0x80000000
    cc64:	e0a5e390 	umlal	lr, r5, r0, r3
    cc68:	e3a06000 	mov	r6, #0, 0
    cc6c:	e0a65391 	umlal	r5, r6, r1, r3
    cc70:	e33c0000 	teq	ip, #0, 0
    cc74:	138ee001 	orrne	lr, lr, #1, 0
    cc78:	e24440ff 	sub	r4, r4, #255, 0	; 0xff
    cc7c:	e3560c02 	cmp	r6, #512	; 0x200
    cc80:	e2c44c03 	sbc	r4, r4, #768	; 0x300
    cc84:	2a000002 	bcs	cc94 <__aeabi_dmul+0x84>
    cc88:	e1b0e08e 	lsls	lr, lr, #1
    cc8c:	e0b55005 	adcs	r5, r5, r5
    cc90:	e0a66006 	adc	r6, r6, r6
    cc94:	e1821586 	orr	r1, r2, r6, lsl #11
    cc98:	e1811aa5 	orr	r1, r1, r5, lsr #21
    cc9c:	e1a00585 	lsl	r0, r5, #11
    cca0:	e1800aae 	orr	r0, r0, lr, lsr #21
    cca4:	e1a0e58e 	lsl	lr, lr, #11
    cca8:	e254c0fd 	subs	ip, r4, #253, 0	; 0xfd
    ccac:	835c0c07 	cmphi	ip, #1792	; 0x700
    ccb0:	8a000011 	bhi	ccfc <__aeabi_dmul+0xec>
    ccb4:	e35e0102 	cmp	lr, #-2147483648	; 0x80000000
    ccb8:	01b0e0a0 	lsrseq	lr, r0, #1
    ccbc:	e2b00000 	adcs	r0, r0, #0, 0
    ccc0:	e0a11a04 	adc	r1, r1, r4, lsl #20
    ccc4:	e8bd4070 	pop	{r4, r5, r6, lr}
    ccc8:	e12fff1e 	bx	lr
    cccc:	e2066102 	and	r6, r6, #-2147483648	; 0x80000000
    ccd0:	e1861001 	orr	r1, r6, r1
    ccd4:	e1800002 	orr	r0, r0, r2
    ccd8:	e0211003 	eor	r1, r1, r3
    ccdc:	e05440ac 	subs	r4, r4, ip, lsr #1
    cce0:	c074500c 	rsbsgt	r5, r4, ip
    cce4:	c1811a04 	orrgt	r1, r1, r4, lsl #20
    cce8:	c8bd4070 	popgt	{r4, r5, r6, lr}
    ccec:	c12fff1e 	bxgt	lr
    ccf0:	e3811601 	orr	r1, r1, #1048576	; 0x100000
    ccf4:	e3a0e000 	mov	lr, #0, 0
    ccf8:	e2544001 	subs	r4, r4, #1, 0
    ccfc:	ca00005d 	bgt	ce78 <__aeabi_dmul+0x268>
    cd00:	e3740036 	cmn	r4, #54, 0	; 0x36
    cd04:	d3a00000 	movle	r0, #0, 0
    cd08:	d2011102 	andle	r1, r1, #-2147483648	; 0x80000000
    cd0c:	d8bd4070 	pople	{r4, r5, r6, lr}
    cd10:	d12fff1e 	bxle	lr
    cd14:	e2644000 	rsb	r4, r4, #0, 0
    cd18:	e2544020 	subs	r4, r4, #32, 0
    cd1c:	aa00001a 	bge	cd8c <__aeabi_dmul+0x17c>
    cd20:	e294400c 	adds	r4, r4, #12, 0
    cd24:	ca00000c 	bgt	cd5c <__aeabi_dmul+0x14c>
    cd28:	e2844014 	add	r4, r4, #20, 0
    cd2c:	e2645020 	rsb	r5, r4, #32, 0
    cd30:	e1a03510 	lsl	r3, r0, r5
    cd34:	e1a00430 	lsr	r0, r0, r4
    cd38:	e1800511 	orr	r0, r0, r1, lsl r5
    cd3c:	e2012102 	and	r2, r1, #-2147483648	; 0x80000000
    cd40:	e3c11102 	bic	r1, r1, #-2147483648	; 0x80000000
    cd44:	e0900fa3 	adds	r0, r0, r3, lsr #31
    cd48:	e0a21431 	adc	r1, r2, r1, lsr r4
    cd4c:	e19ee083 	orrs	lr, lr, r3, lsl #1
    cd50:	01c00fa3 	biceq	r0, r0, r3, lsr #31
    cd54:	e8bd4070 	pop	{r4, r5, r6, lr}
    cd58:	e12fff1e 	bx	lr
    cd5c:	e264400c 	rsb	r4, r4, #12, 0
    cd60:	e2645020 	rsb	r5, r4, #32, 0
    cd64:	e1a03410 	lsl	r3, r0, r4
    cd68:	e1a00530 	lsr	r0, r0, r5
    cd6c:	e1800411 	orr	r0, r0, r1, lsl r4
    cd70:	e2011102 	and	r1, r1, #-2147483648	; 0x80000000
    cd74:	e0900fa3 	adds	r0, r0, r3, lsr #31
    cd78:	e2a11000 	adc	r1, r1, #0, 0
    cd7c:	e19ee083 	orrs	lr, lr, r3, lsl #1
    cd80:	01c00fa3 	biceq	r0, r0, r3, lsr #31
    cd84:	e8bd4070 	pop	{r4, r5, r6, lr}
    cd88:	e12fff1e 	bx	lr
    cd8c:	e2645020 	rsb	r5, r4, #32, 0
    cd90:	e18ee510 	orr	lr, lr, r0, lsl r5
    cd94:	e1a03430 	lsr	r3, r0, r4
    cd98:	e1833511 	orr	r3, r3, r1, lsl r5
    cd9c:	e1a00431 	lsr	r0, r1, r4
    cda0:	e2011102 	and	r1, r1, #-2147483648	; 0x80000000
    cda4:	e1c00431 	bic	r0, r0, r1, lsr r4
    cda8:	e0800fa3 	add	r0, r0, r3, lsr #31
    cdac:	e19ee083 	orrs	lr, lr, r3, lsl #1
    cdb0:	01c00fa3 	biceq	r0, r0, r3, lsr #31
    cdb4:	e8bd4070 	pop	{r4, r5, r6, lr}
    cdb8:	e12fff1e 	bx	lr
    cdbc:	e3340000 	teq	r4, #0, 0
    cdc0:	1a000008 	bne	cde8 <__aeabi_dmul+0x1d8>
    cdc4:	e2016102 	and	r6, r1, #-2147483648	; 0x80000000
    cdc8:	e1b00080 	lsls	r0, r0, #1
    cdcc:	e0a11001 	adc	r1, r1, r1
    cdd0:	e3110601 	tst	r1, #1048576	; 0x100000
    cdd4:	02444001 	subeq	r4, r4, #1, 0
    cdd8:	0afffffa 	beq	cdc8 <__aeabi_dmul+0x1b8>
    cddc:	e1811006 	orr	r1, r1, r6
    cde0:	e3350000 	teq	r5, #0, 0
    cde4:	112fff1e 	bxne	lr
    cde8:	e2036102 	and	r6, r3, #-2147483648	; 0x80000000
    cdec:	e1b02082 	lsls	r2, r2, #1
    cdf0:	e0a33003 	adc	r3, r3, r3
    cdf4:	e3130601 	tst	r3, #1048576	; 0x100000
    cdf8:	02455001 	subeq	r5, r5, #1, 0
    cdfc:	0afffffa 	beq	cdec <__aeabi_dmul+0x1dc>
    ce00:	e1833006 	orr	r3, r3, r6
    ce04:	e12fff1e 	bx	lr
    ce08:	e134000c 	teq	r4, ip
    ce0c:	e00c5a23 	and	r5, ip, r3, lsr #20
    ce10:	1135000c 	teqne	r5, ip
    ce14:	0a000007 	beq	ce38 <__aeabi_dmul+0x228>
    ce18:	e1906081 	orrs	r6, r0, r1, lsl #1
    ce1c:	11926083 	orrsne	r6, r2, r3, lsl #1
    ce20:	1affffe5 	bne	cdbc <__aeabi_dmul+0x1ac>
    ce24:	e0211003 	eor	r1, r1, r3
    ce28:	e2011102 	and	r1, r1, #-2147483648	; 0x80000000
    ce2c:	e3a00000 	mov	r0, #0, 0
    ce30:	e8bd4070 	pop	{r4, r5, r6, lr}
    ce34:	e12fff1e 	bx	lr
    ce38:	e1906081 	orrs	r6, r0, r1, lsl #1
    ce3c:	01a00002 	moveq	r0, r2
    ce40:	01a01003 	moveq	r1, r3
    ce44:	11926083 	orrsne	r6, r2, r3, lsl #1
    ce48:	0a000010 	beq	ce90 <__aeabi_dmul+0x280>
    ce4c:	e134000c 	teq	r4, ip
    ce50:	1a000001 	bne	ce5c <__aeabi_dmul+0x24c>
    ce54:	e1906601 	orrs	r6, r0, r1, lsl #12
    ce58:	1a00000c 	bne	ce90 <__aeabi_dmul+0x280>
    ce5c:	e135000c 	teq	r5, ip
    ce60:	1a000003 	bne	ce74 <__aeabi_dmul+0x264>
    ce64:	e1926603 	orrs	r6, r2, r3, lsl #12
    ce68:	11a00002 	movne	r0, r2
    ce6c:	11a01003 	movne	r1, r3
    ce70:	1a000006 	bne	ce90 <__aeabi_dmul+0x280>
    ce74:	e0211003 	eor	r1, r1, r3
    ce78:	e2011102 	and	r1, r1, #-2147483648	; 0x80000000
    ce7c:	e381147f 	orr	r1, r1, #2130706432	; 0x7f000000
    ce80:	e381160f 	orr	r1, r1, #15728640	; 0xf00000
    ce84:	e3a00000 	mov	r0, #0, 0
    ce88:	e8bd4070 	pop	{r4, r5, r6, lr}
    ce8c:	e12fff1e 	bx	lr
    ce90:	e381147f 	orr	r1, r1, #2130706432	; 0x7f000000
    ce94:	e381173e 	orr	r1, r1, #16252928	; 0xf80000
    ce98:	e8bd4070 	pop	{r4, r5, r6, lr}
    ce9c:	e12fff1e 	bx	lr

0000cea0 <__aeabi_ddiv>:
    cea0:	e92d4070 	push	{r4, r5, r6, lr}
    cea4:	e3a0c0ff 	mov	ip, #255, 0	; 0xff
    cea8:	e38ccc07 	orr	ip, ip, #1792	; 0x700
    ceac:	e01c4a21 	ands	r4, ip, r1, lsr #20
    ceb0:	101c5a23 	andsne	r5, ip, r3, lsr #20
    ceb4:	1134000c 	teqne	r4, ip
    ceb8:	1135000c 	teqne	r5, ip
    cebc:	0b00005e 	bleq	d03c <__aeabi_ddiv+0x19c>
    cec0:	e0444005 	sub	r4, r4, r5
    cec4:	e021e003 	eor	lr, r1, r3
    cec8:	e1925603 	orrs	r5, r2, r3, lsl #12
    cecc:	e1a01601 	lsl	r1, r1, #12
    ced0:	0a00004c 	beq	d008 <__aeabi_ddiv+0x168>
    ced4:	e1a03603 	lsl	r3, r3, #12
    ced8:	e3a05201 	mov	r5, #268435456	; 0x10000000
    cedc:	e1853223 	orr	r3, r5, r3, lsr #4
    cee0:	e1833c22 	orr	r3, r3, r2, lsr #24
    cee4:	e1a02402 	lsl	r2, r2, #8
    cee8:	e1855221 	orr	r5, r5, r1, lsr #4
    ceec:	e1855c20 	orr	r5, r5, r0, lsr #24
    cef0:	e1a06400 	lsl	r6, r0, #8
    cef4:	e20e1102 	and	r1, lr, #-2147483648	; 0x80000000
    cef8:	e1550003 	cmp	r5, r3
    cefc:	01560002 	cmpeq	r6, r2
    cf00:	e2a440fd 	adc	r4, r4, #253, 0	; 0xfd
    cf04:	e2844c03 	add	r4, r4, #768	; 0x300
    cf08:	2a000001 	bcs	cf14 <__aeabi_ddiv+0x74>
    cf0c:	e1b030a3 	lsrs	r3, r3, #1
    cf10:	e1a02062 	rrx	r2, r2
    cf14:	e0566002 	subs	r6, r6, r2
    cf18:	e0c55003 	sbc	r5, r5, r3
    cf1c:	e1b030a3 	lsrs	r3, r3, #1
    cf20:	e1a02062 	rrx	r2, r2
    cf24:	e3a00601 	mov	r0, #1048576	; 0x100000
    cf28:	e3a0c702 	mov	ip, #524288	; 0x80000
    cf2c:	e056e002 	subs	lr, r6, r2
    cf30:	e0d5e003 	sbcs	lr, r5, r3
    cf34:	20466002 	subcs	r6, r6, r2
    cf38:	21a0500e 	movcs	r5, lr
    cf3c:	2180000c 	orrcs	r0, r0, ip
    cf40:	e1b030a3 	lsrs	r3, r3, #1
    cf44:	e1a02062 	rrx	r2, r2
    cf48:	e056e002 	subs	lr, r6, r2
    cf4c:	e0d5e003 	sbcs	lr, r5, r3
    cf50:	20466002 	subcs	r6, r6, r2
    cf54:	21a0500e 	movcs	r5, lr
    cf58:	218000ac 	orrcs	r0, r0, ip, lsr #1
    cf5c:	e1b030a3 	lsrs	r3, r3, #1
    cf60:	e1a02062 	rrx	r2, r2
    cf64:	e056e002 	subs	lr, r6, r2
    cf68:	e0d5e003 	sbcs	lr, r5, r3
    cf6c:	20466002 	subcs	r6, r6, r2
    cf70:	21a0500e 	movcs	r5, lr
    cf74:	2180012c 	orrcs	r0, r0, ip, lsr #2
    cf78:	e1b030a3 	lsrs	r3, r3, #1
    cf7c:	e1a02062 	rrx	r2, r2
    cf80:	e056e002 	subs	lr, r6, r2
    cf84:	e0d5e003 	sbcs	lr, r5, r3
    cf88:	20466002 	subcs	r6, r6, r2
    cf8c:	21a0500e 	movcs	r5, lr
    cf90:	218001ac 	orrcs	r0, r0, ip, lsr #3
    cf94:	e195e006 	orrs	lr, r5, r6
    cf98:	0a00000d 	beq	cfd4 <__aeabi_ddiv+0x134>
    cf9c:	e1a05205 	lsl	r5, r5, #4
    cfa0:	e1855e26 	orr	r5, r5, r6, lsr #28
    cfa4:	e1a06206 	lsl	r6, r6, #4
    cfa8:	e1a03183 	lsl	r3, r3, #3
    cfac:	e1833ea2 	orr	r3, r3, r2, lsr #29
    cfb0:	e1a02182 	lsl	r2, r2, #3
    cfb4:	e1b0c22c 	lsrs	ip, ip, #4
    cfb8:	1affffdb 	bne	cf2c <__aeabi_ddiv+0x8c>
    cfbc:	e3110601 	tst	r1, #1048576	; 0x100000
    cfc0:	1a000006 	bne	cfe0 <__aeabi_ddiv+0x140>
    cfc4:	e1811000 	orr	r1, r1, r0
    cfc8:	e3a00000 	mov	r0, #0, 0
    cfcc:	e3a0c102 	mov	ip, #-2147483648	; 0x80000000
    cfd0:	eaffffd5 	b	cf2c <__aeabi_ddiv+0x8c>
    cfd4:	e3110601 	tst	r1, #1048576	; 0x100000
    cfd8:	01811000 	orreq	r1, r1, r0
    cfdc:	03a00000 	moveq	r0, #0, 0
    cfe0:	e254c0fd 	subs	ip, r4, #253, 0	; 0xfd
    cfe4:	835c0c07 	cmphi	ip, #1792	; 0x700
    cfe8:	8affff43 	bhi	ccfc <__aeabi_dmul+0xec>
    cfec:	e055c003 	subs	ip, r5, r3
    cff0:	0056c002 	subseq	ip, r6, r2
    cff4:	01b0c0a0 	lsrseq	ip, r0, #1
    cff8:	e2b00000 	adcs	r0, r0, #0, 0
    cffc:	e0a11a04 	adc	r1, r1, r4, lsl #20
    d000:	e8bd4070 	pop	{r4, r5, r6, lr}
    d004:	e12fff1e 	bx	lr
    d008:	e20ee102 	and	lr, lr, #-2147483648	; 0x80000000
    d00c:	e18e1621 	orr	r1, lr, r1, lsr #12
    d010:	e09440ac 	adds	r4, r4, ip, lsr #1
    d014:	c074500c 	rsbsgt	r5, r4, ip
    d018:	c1811a04 	orrgt	r1, r1, r4, lsl #20
    d01c:	c8bd4070 	popgt	{r4, r5, r6, lr}
    d020:	c12fff1e 	bxgt	lr
    d024:	e3811601 	orr	r1, r1, #1048576	; 0x100000
    d028:	e3a0e000 	mov	lr, #0, 0
    d02c:	e2544001 	subs	r4, r4, #1, 0
    d030:	eaffff31 	b	ccfc <__aeabi_dmul+0xec>
    d034:	e185e006 	orr	lr, r5, r6
    d038:	eaffff2f 	b	ccfc <__aeabi_dmul+0xec>
    d03c:	e00c5a23 	and	r5, ip, r3, lsr #20
    d040:	e134000c 	teq	r4, ip
    d044:	0135000c 	teqeq	r5, ip
    d048:	0affff90 	beq	ce90 <__aeabi_dmul+0x280>
    d04c:	e134000c 	teq	r4, ip
    d050:	1a000006 	bne	d070 <__aeabi_ddiv+0x1d0>
    d054:	e1904601 	orrs	r4, r0, r1, lsl #12
    d058:	1affff8c 	bne	ce90 <__aeabi_dmul+0x280>
    d05c:	e135000c 	teq	r5, ip
    d060:	1affff83 	bne	ce74 <__aeabi_dmul+0x264>
    d064:	e1a00002 	mov	r0, r2
    d068:	e1a01003 	mov	r1, r3
    d06c:	eaffff87 	b	ce90 <__aeabi_dmul+0x280>
    d070:	e135000c 	teq	r5, ip
    d074:	1a000004 	bne	d08c <__aeabi_ddiv+0x1ec>
    d078:	e1925603 	orrs	r5, r2, r3, lsl #12
    d07c:	0affff68 	beq	ce24 <__aeabi_dmul+0x214>
    d080:	e1a00002 	mov	r0, r2
    d084:	e1a01003 	mov	r1, r3
    d088:	eaffff80 	b	ce90 <__aeabi_dmul+0x280>
    d08c:	e1906081 	orrs	r6, r0, r1, lsl #1
    d090:	11926083 	orrsne	r6, r2, r3, lsl #1
    d094:	1affff48 	bne	cdbc <__aeabi_dmul+0x1ac>
    d098:	e1904081 	orrs	r4, r0, r1, lsl #1
    d09c:	1affff74 	bne	ce74 <__aeabi_dmul+0x264>
    d0a0:	e1925083 	orrs	r5, r2, r3, lsl #1
    d0a4:	1affff5e 	bne	ce24 <__aeabi_dmul+0x214>
    d0a8:	eaffff78 	b	ce90 <__aeabi_dmul+0x280>

0000d0ac <__gedf2>:
    d0ac:	e3e0c000 	mvn	ip, #0, 0
    d0b0:	ea000002 	b	d0c0 <__cmpdf2+0x4>

0000d0b4 <__ledf2>:
    d0b4:	e3a0c001 	mov	ip, #1, 0
    d0b8:	ea000000 	b	d0c0 <__cmpdf2+0x4>

0000d0bc <__cmpdf2>:
    d0bc:	e3a0c001 	mov	ip, #1, 0
    d0c0:	e52dc004 	push	{ip}		; (str ip, [sp, #-4]!)
    d0c4:	e1a0c081 	lsl	ip, r1, #1
    d0c8:	e1f0cacc 	mvns	ip, ip, asr #21
    d0cc:	e1a0c083 	lsl	ip, r3, #1
    d0d0:	11f0cacc 	mvnsne	ip, ip, asr #21
    d0d4:	0a00000e 	beq	d114 <__cmpdf2+0x58>
    d0d8:	e28dd004 	add	sp, sp, #4, 0
    d0dc:	e190c081 	orrs	ip, r0, r1, lsl #1
    d0e0:	0192c083 	orrseq	ip, r2, r3, lsl #1
    d0e4:	11310003 	teqne	r1, r3
    d0e8:	01300002 	teqeq	r0, r2
    d0ec:	03a00000 	moveq	r0, #0, 0
    d0f0:	012fff1e 	bxeq	lr
    d0f4:	e3700000 	cmn	r0, #0, 0
    d0f8:	e1310003 	teq	r1, r3
    d0fc:	51510003 	cmppl	r1, r3
    d100:	01500002 	cmpeq	r0, r2
    d104:	21a00fc3 	asrcs	r0, r3, #31
    d108:	31e00fc3 	mvncc	r0, r3, asr #31
    d10c:	e3800001 	orr	r0, r0, #1, 0
    d110:	e12fff1e 	bx	lr
    d114:	e1a0c081 	lsl	ip, r1, #1
    d118:	e1f0cacc 	mvns	ip, ip, asr #21
    d11c:	1a000001 	bne	d128 <__cmpdf2+0x6c>
    d120:	e190c601 	orrs	ip, r0, r1, lsl #12
    d124:	1a000004 	bne	d13c <__cmpdf2+0x80>
    d128:	e1a0c083 	lsl	ip, r3, #1
    d12c:	e1f0cacc 	mvns	ip, ip, asr #21
    d130:	1affffe8 	bne	d0d8 <__cmpdf2+0x1c>
    d134:	e192c603 	orrs	ip, r2, r3, lsl #12
    d138:	0affffe6 	beq	d0d8 <__cmpdf2+0x1c>
    d13c:	e49d0004 	pop	{r0}		; (ldr r0, [sp], #4)
    d140:	e12fff1e 	bx	lr

0000d144 <__aeabi_cdrcmple>:
    d144:	e1a0c000 	mov	ip, r0
    d148:	e1a00002 	mov	r0, r2
    d14c:	e1a0200c 	mov	r2, ip
    d150:	e1a0c001 	mov	ip, r1
    d154:	e1a01003 	mov	r1, r3
    d158:	e1a0300c 	mov	r3, ip
    d15c:	eaffffff 	b	d160 <__aeabi_cdcmpeq>

0000d160 <__aeabi_cdcmpeq>:
    d160:	e92d4001 	push	{r0, lr}
    d164:	ebffffd4 	bl	d0bc <__cmpdf2>
    d168:	e3500000 	cmp	r0, #0, 0
    d16c:	43700000 	cmnmi	r0, #0, 0
    d170:	e8bd4001 	pop	{r0, lr}
    d174:	e12fff1e 	bx	lr

0000d178 <__aeabi_dcmpeq>:
    d178:	e52de008 	str	lr, [sp, #-8]!
    d17c:	ebfffff7 	bl	d160 <__aeabi_cdcmpeq>
    d180:	03a00001 	moveq	r0, #1, 0
    d184:	13a00000 	movne	r0, #0, 0
    d188:	e49de008 	ldr	lr, [sp], #8
    d18c:	e12fff1e 	bx	lr

0000d190 <__aeabi_dcmplt>:
    d190:	e52de008 	str	lr, [sp, #-8]!
    d194:	ebfffff1 	bl	d160 <__aeabi_cdcmpeq>
    d198:	33a00001 	movcc	r0, #1, 0
    d19c:	23a00000 	movcs	r0, #0, 0
    d1a0:	e49de008 	ldr	lr, [sp], #8
    d1a4:	e12fff1e 	bx	lr

0000d1a8 <__aeabi_dcmple>:
    d1a8:	e52de008 	str	lr, [sp, #-8]!
    d1ac:	ebffffeb 	bl	d160 <__aeabi_cdcmpeq>
    d1b0:	93a00001 	movls	r0, #1, 0
    d1b4:	83a00000 	movhi	r0, #0, 0
    d1b8:	e49de008 	ldr	lr, [sp], #8
    d1bc:	e12fff1e 	bx	lr

0000d1c0 <__aeabi_dcmpge>:
    d1c0:	e52de008 	str	lr, [sp, #-8]!
    d1c4:	ebffffde 	bl	d144 <__aeabi_cdrcmple>
    d1c8:	93a00001 	movls	r0, #1, 0
    d1cc:	83a00000 	movhi	r0, #0, 0
    d1d0:	e49de008 	ldr	lr, [sp], #8
    d1d4:	e12fff1e 	bx	lr

0000d1d8 <__aeabi_dcmpgt>:
    d1d8:	e52de008 	str	lr, [sp, #-8]!
    d1dc:	ebffffd8 	bl	d144 <__aeabi_cdrcmple>
    d1e0:	33a00001 	movcc	r0, #1, 0
    d1e4:	23a00000 	movcs	r0, #0, 0
    d1e8:	e49de008 	ldr	lr, [sp], #8
    d1ec:	e12fff1e 	bx	lr

0000d1f0 <__aeabi_d2iz>:
    d1f0:	e1a02081 	lsl	r2, r1, #1
    d1f4:	e2922602 	adds	r2, r2, #2097152	; 0x200000
    d1f8:	2a00000c 	bcs	d230 <__aeabi_d2iz+0x40>
    d1fc:	5a000009 	bpl	d228 <__aeabi_d2iz+0x38>
    d200:	e3e03e3e 	mvn	r3, #992	; 0x3e0
    d204:	e0532ac2 	subs	r2, r3, r2, asr #21
    d208:	9a00000a 	bls	d238 <__aeabi_d2iz+0x48>
    d20c:	e1a03581 	lsl	r3, r1, #11
    d210:	e3833102 	orr	r3, r3, #-2147483648	; 0x80000000
    d214:	e1833aa0 	orr	r3, r3, r0, lsr #21
    d218:	e3110102 	tst	r1, #-2147483648	; 0x80000000
    d21c:	e1a00233 	lsr	r0, r3, r2
    d220:	12600000 	rsbne	r0, r0, #0, 0
    d224:	e12fff1e 	bx	lr
    d228:	e3a00000 	mov	r0, #0, 0
    d22c:	e12fff1e 	bx	lr
    d230:	e1900601 	orrs	r0, r0, r1, lsl #12
    d234:	1a000002 	bne	d244 <__aeabi_d2iz+0x54>
    d238:	e2110102 	ands	r0, r1, #-2147483648	; 0x80000000
    d23c:	03e00102 	mvneq	r0, #-2147483648	; 0x80000000
    d240:	e12fff1e 	bx	lr
    d244:	e3a00000 	mov	r0, #0, 0
    d248:	e12fff1e 	bx	lr

0000d24c <__aeabi_d2uiz>:
    d24c:	e1b02081 	lsls	r2, r1, #1
    d250:	2a00000a 	bcs	d280 <__aeabi_d2uiz+0x34>
    d254:	e2922602 	adds	r2, r2, #2097152	; 0x200000
    d258:	2a00000a 	bcs	d288 <__aeabi_d2uiz+0x3c>
    d25c:	5a000007 	bpl	d280 <__aeabi_d2uiz+0x34>
    d260:	e3e03e3e 	mvn	r3, #992	; 0x3e0
    d264:	e0532ac2 	subs	r2, r3, r2, asr #21
    d268:	4a000008 	bmi	d290 <__aeabi_d2uiz+0x44>
    d26c:	e1a03581 	lsl	r3, r1, #11
    d270:	e3833102 	orr	r3, r3, #-2147483648	; 0x80000000
    d274:	e1833aa0 	orr	r3, r3, r0, lsr #21
    d278:	e1a00233 	lsr	r0, r3, r2
    d27c:	e12fff1e 	bx	lr
    d280:	e3a00000 	mov	r0, #0, 0
    d284:	e12fff1e 	bx	lr
    d288:	e1900601 	orrs	r0, r0, r1, lsl #12
    d28c:	1a000001 	bne	d298 <__aeabi_d2uiz+0x4c>
    d290:	e3e00000 	mvn	r0, #0, 0
    d294:	e12fff1e 	bx	lr
    d298:	e3a00000 	mov	r0, #0, 0
    d29c:	e12fff1e 	bx	lr

0000d2a0 <__aeabi_d2f>:
    d2a0:	e1a02081 	lsl	r2, r1, #1
    d2a4:	e2523207 	subs	r3, r2, #1879048192	; 0x70000000
    d2a8:	2253c602 	subscs	ip, r3, #2097152	; 0x200000
    d2ac:	227cc57f 	rsbscs	ip, ip, #532676608	; 0x1fc00000
    d2b0:	9a000006 	bls	d2d0 <__aeabi_d2f+0x30>
    d2b4:	e201c102 	and	ip, r1, #-2147483648	; 0x80000000
    d2b8:	e1a02180 	lsl	r2, r0, #3
    d2bc:	e18c0ea0 	orr	r0, ip, r0, lsr #29
    d2c0:	e3520102 	cmp	r2, #-2147483648	; 0x80000000
    d2c4:	e0a00103 	adc	r0, r0, r3, lsl #2
    d2c8:	03c00001 	biceq	r0, r0, #1, 0
    d2cc:	e12fff1e 	bx	lr
    d2d0:	e3110101 	tst	r1, #1073741824	; 0x40000000
    d2d4:	1a00000f 	bne	d318 <__aeabi_d2f+0x78>
    d2d8:	e293262e 	adds	r2, r3, #48234496	; 0x2e00000
    d2dc:	b2010102 	andlt	r0, r1, #-2147483648	; 0x80000000
    d2e0:	b12fff1e 	bxlt	lr
    d2e4:	e3811601 	orr	r1, r1, #1048576	; 0x100000
    d2e8:	e1a02aa2 	lsr	r2, r2, #21
    d2ec:	e2622018 	rsb	r2, r2, #24, 0
    d2f0:	e262c020 	rsb	ip, r2, #32, 0
    d2f4:	e1b03c10 	lsls	r3, r0, ip
    d2f8:	e1a00230 	lsr	r0, r0, r2
    d2fc:	13800001 	orrne	r0, r0, #1, 0
    d300:	e1a03581 	lsl	r3, r1, #11
    d304:	e1a035a3 	lsr	r3, r3, #11
    d308:	e1800c13 	orr	r0, r0, r3, lsl ip
    d30c:	e1a03233 	lsr	r3, r3, r2
    d310:	e1a03083 	lsl	r3, r3, #1
    d314:	eaffffe6 	b	d2b4 <__aeabi_d2f+0x14>
    d318:	e1f03ac2 	mvns	r3, r2, asr #21
    d31c:	1a000003 	bne	d330 <__aeabi_d2f+0x90>
    d320:	e1903601 	orrs	r3, r0, r1, lsl #12
    d324:	13a0047f 	movne	r0, #2130706432	; 0x7f000000
    d328:	13800503 	orrne	r0, r0, #12582912	; 0xc00000
    d32c:	112fff1e 	bxne	lr
    d330:	e2010102 	and	r0, r1, #-2147483648	; 0x80000000
    d334:	e380047f 	orr	r0, r0, #2130706432	; 0x7f000000
    d338:	e3800502 	orr	r0, r0, #8388608	; 0x800000
    d33c:	e12fff1e 	bx	lr

0000d340 <__aeabi_frsub>:
    d340:	e2200102 	eor	r0, r0, #-2147483648	; 0x80000000
    d344:	ea000000 	b	d34c <__addsf3>

0000d348 <__aeabi_fsub>:
    d348:	e2211102 	eor	r1, r1, #-2147483648	; 0x80000000

0000d34c <__addsf3>:
    d34c:	e1b02080 	lsls	r2, r0, #1
    d350:	11b03081 	lslsne	r3, r1, #1
    d354:	11320003 	teqne	r2, r3
    d358:	11f0cc42 	mvnsne	ip, r2, asr #24
    d35c:	11f0cc43 	mvnsne	ip, r3, asr #24
    d360:	0a000047 	beq	d484 <__addsf3+0x138>
    d364:	e1a02c22 	lsr	r2, r2, #24
    d368:	e0723c23 	rsbs	r3, r2, r3, lsr #24
    d36c:	c0822003 	addgt	r2, r2, r3
    d370:	c0201001 	eorgt	r1, r0, r1
    d374:	c0210000 	eorgt	r0, r1, r0
    d378:	c0201001 	eorgt	r1, r0, r1
    d37c:	b2633000 	rsblt	r3, r3, #0, 0
    d380:	e3530019 	cmp	r3, #25, 0
    d384:	812fff1e 	bxhi	lr
    d388:	e3100102 	tst	r0, #-2147483648	; 0x80000000
    d38c:	e3800502 	orr	r0, r0, #8388608	; 0x800000
    d390:	e3c004ff 	bic	r0, r0, #-16777216	; 0xff000000
    d394:	12600000 	rsbne	r0, r0, #0, 0
    d398:	e3110102 	tst	r1, #-2147483648	; 0x80000000
    d39c:	e3811502 	orr	r1, r1, #8388608	; 0x800000
    d3a0:	e3c114ff 	bic	r1, r1, #-16777216	; 0xff000000
    d3a4:	12611000 	rsbne	r1, r1, #0, 0
    d3a8:	e1320003 	teq	r2, r3
    d3ac:	0a00002e 	beq	d46c <__addsf3+0x120>
    d3b0:	e2422001 	sub	r2, r2, #1, 0
    d3b4:	e0900351 	adds	r0, r0, r1, asr r3
    d3b8:	e2633020 	rsb	r3, r3, #32, 0
    d3bc:	e1a01311 	lsl	r1, r1, r3
    d3c0:	e2003102 	and	r3, r0, #-2147483648	; 0x80000000
    d3c4:	5a000001 	bpl	d3d0 <__addsf3+0x84>
    d3c8:	e2711000 	rsbs	r1, r1, #0, 0
    d3cc:	e2e00000 	rsc	r0, r0, #0, 0
    d3d0:	e3500502 	cmp	r0, #8388608	; 0x800000
    d3d4:	3a00000b 	bcc	d408 <__addsf3+0xbc>
    d3d8:	e3500401 	cmp	r0, #16777216	; 0x1000000
    d3dc:	3a000004 	bcc	d3f4 <__addsf3+0xa8>
    d3e0:	e1b000a0 	lsrs	r0, r0, #1
    d3e4:	e1a01061 	rrx	r1, r1
    d3e8:	e2822001 	add	r2, r2, #1, 0
    d3ec:	e35200fe 	cmp	r2, #254, 0	; 0xfe
    d3f0:	2a000038 	bcs	d4d8 <__addsf3+0x18c>
    d3f4:	e3510102 	cmp	r1, #-2147483648	; 0x80000000
    d3f8:	e0a00b82 	adc	r0, r0, r2, lsl #23
    d3fc:	03c00001 	biceq	r0, r0, #1, 0
    d400:	e1800003 	orr	r0, r0, r3
    d404:	e12fff1e 	bx	lr
    d408:	e1b01081 	lsls	r1, r1, #1
    d40c:	e0a00000 	adc	r0, r0, r0
    d410:	e3100502 	tst	r0, #8388608	; 0x800000
    d414:	e2422001 	sub	r2, r2, #1, 0
    d418:	1afffff5 	bne	d3f4 <__addsf3+0xa8>
    d41c:	e1b0c620 	lsrs	ip, r0, #12
    d420:	01a00600 	lsleq	r0, r0, #12
    d424:	0242200c 	subeq	r2, r2, #12, 0
    d428:	e31008ff 	tst	r0, #16711680	; 0xff0000
    d42c:	01a00400 	lsleq	r0, r0, #8
    d430:	02422008 	subeq	r2, r2, #8, 0
    d434:	e310060f 	tst	r0, #15728640	; 0xf00000
    d438:	01a00200 	lsleq	r0, r0, #4
    d43c:	02422004 	subeq	r2, r2, #4, 0
    d440:	e3100503 	tst	r0, #12582912	; 0xc00000
    d444:	01a00100 	lsleq	r0, r0, #2
    d448:	02422002 	subeq	r2, r2, #2, 0
    d44c:	e3500502 	cmp	r0, #8388608	; 0x800000
    d450:	31a00080 	lslcc	r0, r0, #1
    d454:	e2d22000 	sbcs	r2, r2, #0, 0
    d458:	a0800b82 	addge	r0, r0, r2, lsl #23
    d45c:	b2622000 	rsblt	r2, r2, #0, 0
    d460:	a1800003 	orrge	r0, r0, r3
    d464:	b1830230 	orrlt	r0, r3, r0, lsr r2
    d468:	e12fff1e 	bx	lr
    d46c:	e3320000 	teq	r2, #0, 0
    d470:	e2211502 	eor	r1, r1, #8388608	; 0x800000
    d474:	02200502 	eoreq	r0, r0, #8388608	; 0x800000
    d478:	02822001 	addeq	r2, r2, #1, 0
    d47c:	12433001 	subne	r3, r3, #1, 0
    d480:	eaffffca 	b	d3b0 <__addsf3+0x64>
    d484:	e1a03081 	lsl	r3, r1, #1
    d488:	e1f0cc42 	mvns	ip, r2, asr #24
    d48c:	11f0cc43 	mvnsne	ip, r3, asr #24
    d490:	0a000013 	beq	d4e4 <__addsf3+0x198>
    d494:	e1320003 	teq	r2, r3
    d498:	0a000002 	beq	d4a8 <__addsf3+0x15c>
    d49c:	e3320000 	teq	r2, #0, 0
    d4a0:	01a00001 	moveq	r0, r1
    d4a4:	e12fff1e 	bx	lr
    d4a8:	e1300001 	teq	r0, r1
    d4ac:	13a00000 	movne	r0, #0, 0
    d4b0:	112fff1e 	bxne	lr
    d4b4:	e31204ff 	tst	r2, #-16777216	; 0xff000000
    d4b8:	1a000002 	bne	d4c8 <__addsf3+0x17c>
    d4bc:	e1b00080 	lsls	r0, r0, #1
    d4c0:	23800102 	orrcs	r0, r0, #-2147483648	; 0x80000000
    d4c4:	e12fff1e 	bx	lr
    d4c8:	e2922402 	adds	r2, r2, #33554432	; 0x2000000
    d4cc:	32800502 	addcc	r0, r0, #8388608	; 0x800000
    d4d0:	312fff1e 	bxcc	lr
    d4d4:	e2003102 	and	r3, r0, #-2147483648	; 0x80000000
    d4d8:	e383047f 	orr	r0, r3, #2130706432	; 0x7f000000
    d4dc:	e3800502 	orr	r0, r0, #8388608	; 0x800000
    d4e0:	e12fff1e 	bx	lr
    d4e4:	e1f02c42 	mvns	r2, r2, asr #24
    d4e8:	11a00001 	movne	r0, r1
    d4ec:	01f03c43 	mvnseq	r3, r3, asr #24
    d4f0:	11a01000 	movne	r1, r0
    d4f4:	e1b02480 	lsls	r2, r0, #9
    d4f8:	01b03481 	lslseq	r3, r1, #9
    d4fc:	01300001 	teqeq	r0, r1
    d500:	13800501 	orrne	r0, r0, #4194304	; 0x400000
    d504:	e12fff1e 	bx	lr

0000d508 <__aeabi_ui2f>:
    d508:	e3a03000 	mov	r3, #0, 0
    d50c:	ea000001 	b	d518 <__aeabi_i2f+0x8>

0000d510 <__aeabi_i2f>:
    d510:	e2103102 	ands	r3, r0, #-2147483648	; 0x80000000
    d514:	42600000 	rsbmi	r0, r0, #0, 0
    d518:	e1b0c000 	movs	ip, r0
    d51c:	012fff1e 	bxeq	lr
    d520:	e383344b 	orr	r3, r3, #1258291200	; 0x4b000000
    d524:	e1a01000 	mov	r1, r0
    d528:	e3a00000 	mov	r0, #0, 0
    d52c:	ea00000f 	b	d570 <__aeabi_l2f+0x30>

0000d530 <__aeabi_ul2f>:
    d530:	e1902001 	orrs	r2, r0, r1
    d534:	012fff1e 	bxeq	lr
    d538:	e3a03000 	mov	r3, #0, 0
    d53c:	ea000005 	b	d558 <__aeabi_l2f+0x18>

0000d540 <__aeabi_l2f>:
    d540:	e1902001 	orrs	r2, r0, r1
    d544:	012fff1e 	bxeq	lr
    d548:	e2113102 	ands	r3, r1, #-2147483648	; 0x80000000
    d54c:	5a000001 	bpl	d558 <__aeabi_l2f+0x18>
    d550:	e2700000 	rsbs	r0, r0, #0, 0
    d554:	e2e11000 	rsc	r1, r1, #0, 0
    d558:	e1b0c001 	movs	ip, r1
    d55c:	01a0c000 	moveq	ip, r0
    d560:	01a01000 	moveq	r1, r0
    d564:	03a00000 	moveq	r0, #0, 0
    d568:	e383345b 	orr	r3, r3, #1526726656	; 0x5b000000
    d56c:	02433201 	subeq	r3, r3, #268435456	; 0x10000000
    d570:	e2433502 	sub	r3, r3, #8388608	; 0x800000
    d574:	e3a02017 	mov	r2, #23, 0
    d578:	e35c0801 	cmp	ip, #65536	; 0x10000
    d57c:	21a0c82c 	lsrcs	ip, ip, #16
    d580:	22422010 	subcs	r2, r2, #16, 0
    d584:	e35c0c01 	cmp	ip, #256	; 0x100
    d588:	21a0c42c 	lsrcs	ip, ip, #8
    d58c:	22422008 	subcs	r2, r2, #8, 0
    d590:	e35c0010 	cmp	ip, #16, 0
    d594:	21a0c22c 	lsrcs	ip, ip, #4
    d598:	22422004 	subcs	r2, r2, #4, 0
    d59c:	e35c0004 	cmp	ip, #4, 0
    d5a0:	22422002 	subcs	r2, r2, #2, 0
    d5a4:	304220ac 	subcc	r2, r2, ip, lsr #1
    d5a8:	e05221ac 	subs	r2, r2, ip, lsr #3
    d5ac:	e0433b82 	sub	r3, r3, r2, lsl #23
    d5b0:	ba000006 	blt	d5d0 <__aeabi_l2f+0x90>
    d5b4:	e0833211 	add	r3, r3, r1, lsl r2
    d5b8:	e1a0c210 	lsl	ip, r0, r2
    d5bc:	e2622020 	rsb	r2, r2, #32, 0
    d5c0:	e35c0102 	cmp	ip, #-2147483648	; 0x80000000
    d5c4:	e0a30230 	adc	r0, r3, r0, lsr r2
    d5c8:	03c00001 	biceq	r0, r0, #1, 0
    d5cc:	e12fff1e 	bx	lr
    d5d0:	e2822020 	add	r2, r2, #32, 0
    d5d4:	e1a0c211 	lsl	ip, r1, r2
    d5d8:	e2622020 	rsb	r2, r2, #32, 0
    d5dc:	e190008c 	orrs	r0, r0, ip, lsl #1
    d5e0:	e0a30231 	adc	r0, r3, r1, lsr r2
    d5e4:	01c00fac 	biceq	r0, r0, ip, lsr #31
    d5e8:	e12fff1e 	bx	lr

0000d5ec <__aeabi_fmul>:
    d5ec:	e3a0c0ff 	mov	ip, #255, 0	; 0xff
    d5f0:	e01c2ba0 	ands	r2, ip, r0, lsr #23
    d5f4:	101c3ba1 	andsne	r3, ip, r1, lsr #23
    d5f8:	1132000c 	teqne	r2, ip
    d5fc:	1133000c 	teqne	r3, ip
    d600:	0a00003e 	beq	d700 <__aeabi_fmul+0x114>
    d604:	e0822003 	add	r2, r2, r3
    d608:	e020c001 	eor	ip, r0, r1
    d60c:	e1b00480 	lsls	r0, r0, #9
    d610:	11b01481 	lslsne	r1, r1, #9
    d614:	0a000010 	beq	d65c <__aeabi_fmul+0x70>
    d618:	e3a03302 	mov	r3, #134217728	; 0x8000000
    d61c:	e18302a0 	orr	r0, r3, r0, lsr #5
    d620:	e18312a1 	orr	r1, r3, r1, lsr #5
    d624:	e0813190 	umull	r3, r1, r0, r1
    d628:	e20c0102 	and	r0, ip, #-2147483648	; 0x80000000
    d62c:	e3510502 	cmp	r1, #8388608	; 0x800000
    d630:	31a01081 	lslcc	r1, r1, #1
    d634:	31811fa3 	orrcc	r1, r1, r3, lsr #31
    d638:	31a03083 	lslcc	r3, r3, #1
    d63c:	e1800001 	orr	r0, r0, r1
    d640:	e2c2207f 	sbc	r2, r2, #127, 0	; 0x7f
    d644:	e35200fd 	cmp	r2, #253, 0	; 0xfd
    d648:	8a00000f 	bhi	d68c <__aeabi_fmul+0xa0>
    d64c:	e3530102 	cmp	r3, #-2147483648	; 0x80000000
    d650:	e0a00b82 	adc	r0, r0, r2, lsl #23
    d654:	03c00001 	biceq	r0, r0, #1, 0
    d658:	e12fff1e 	bx	lr
    d65c:	e3300000 	teq	r0, #0, 0
    d660:	e20cc102 	and	ip, ip, #-2147483648	; 0x80000000
    d664:	01a01481 	lsleq	r1, r1, #9
    d668:	e18c04a0 	orr	r0, ip, r0, lsr #9
    d66c:	e18004a1 	orr	r0, r0, r1, lsr #9
    d670:	e252207f 	subs	r2, r2, #127, 0	; 0x7f
    d674:	c27230ff 	rsbsgt	r3, r2, #255, 0	; 0xff
    d678:	c1800b82 	orrgt	r0, r0, r2, lsl #23
    d67c:	c12fff1e 	bxgt	lr
    d680:	e3800502 	orr	r0, r0, #8388608	; 0x800000
    d684:	e3a03000 	mov	r3, #0, 0
    d688:	e2522001 	subs	r2, r2, #1, 0
    d68c:	ca000035 	bgt	d768 <__aeabi_fmul+0x17c>
    d690:	e3720019 	cmn	r2, #25, 0
    d694:	d2000102 	andle	r0, r0, #-2147483648	; 0x80000000
    d698:	d12fff1e 	bxle	lr
    d69c:	e2622000 	rsb	r2, r2, #0, 0
    d6a0:	e1b01080 	lsls	r1, r0, #1
    d6a4:	e1a01231 	lsr	r1, r1, r2
    d6a8:	e2622020 	rsb	r2, r2, #32, 0
    d6ac:	e1a0c210 	lsl	ip, r0, r2
    d6b0:	e1b00061 	rrxs	r0, r1
    d6b4:	e2a00000 	adc	r0, r0, #0, 0
    d6b8:	e193308c 	orrs	r3, r3, ip, lsl #1
    d6bc:	01c00fac 	biceq	r0, r0, ip, lsr #31
    d6c0:	e12fff1e 	bx	lr
    d6c4:	e3320000 	teq	r2, #0, 0
    d6c8:	e200c102 	and	ip, r0, #-2147483648	; 0x80000000
    d6cc:	01a00080 	lsleq	r0, r0, #1
    d6d0:	03100502 	tsteq	r0, #8388608	; 0x800000
    d6d4:	02422001 	subeq	r2, r2, #1, 0
    d6d8:	0afffffb 	beq	d6cc <__aeabi_fmul+0xe0>
    d6dc:	e180000c 	orr	r0, r0, ip
    d6e0:	e3330000 	teq	r3, #0, 0
    d6e4:	e201c102 	and	ip, r1, #-2147483648	; 0x80000000
    d6e8:	01a01081 	lsleq	r1, r1, #1
    d6ec:	03110502 	tsteq	r1, #8388608	; 0x800000
    d6f0:	02433001 	subeq	r3, r3, #1, 0
    d6f4:	0afffffb 	beq	d6e8 <__aeabi_fmul+0xfc>
    d6f8:	e181100c 	orr	r1, r1, ip
    d6fc:	eaffffc0 	b	d604 <__aeabi_fmul+0x18>
    d700:	e00c3ba1 	and	r3, ip, r1, lsr #23
    d704:	e132000c 	teq	r2, ip
    d708:	1133000c 	teqne	r3, ip
    d70c:	0a000005 	beq	d728 <__aeabi_fmul+0x13c>
    d710:	e3d0c102 	bics	ip, r0, #-2147483648	; 0x80000000
    d714:	13d1c102 	bicsne	ip, r1, #-2147483648	; 0x80000000
    d718:	1affffe9 	bne	d6c4 <__aeabi_fmul+0xd8>
    d71c:	e0200001 	eor	r0, r0, r1
    d720:	e2000102 	and	r0, r0, #-2147483648	; 0x80000000
    d724:	e12fff1e 	bx	lr
    d728:	e3300000 	teq	r0, #0, 0
    d72c:	13300102 	teqne	r0, #-2147483648	; 0x80000000
    d730:	01a00001 	moveq	r0, r1
    d734:	13310000 	teqne	r1, #0, 0
    d738:	13310102 	teqne	r1, #-2147483648	; 0x80000000
    d73c:	0a00000d 	beq	d778 <__aeabi_fmul+0x18c>
    d740:	e132000c 	teq	r2, ip
    d744:	1a000001 	bne	d750 <__aeabi_fmul+0x164>
    d748:	e1b02480 	lsls	r2, r0, #9
    d74c:	1a000009 	bne	d778 <__aeabi_fmul+0x18c>
    d750:	e133000c 	teq	r3, ip
    d754:	1a000002 	bne	d764 <__aeabi_fmul+0x178>
    d758:	e1b03481 	lsls	r3, r1, #9
    d75c:	11a00001 	movne	r0, r1
    d760:	1a000004 	bne	d778 <__aeabi_fmul+0x18c>
    d764:	e0200001 	eor	r0, r0, r1
    d768:	e2000102 	and	r0, r0, #-2147483648	; 0x80000000
    d76c:	e380047f 	orr	r0, r0, #2130706432	; 0x7f000000
    d770:	e3800502 	orr	r0, r0, #8388608	; 0x800000
    d774:	e12fff1e 	bx	lr
    d778:	e380047f 	orr	r0, r0, #2130706432	; 0x7f000000
    d77c:	e3800503 	orr	r0, r0, #12582912	; 0xc00000
    d780:	e12fff1e 	bx	lr

0000d784 <__aeabi_fdiv>:
    d784:	e3a0c0ff 	mov	ip, #255, 0	; 0xff
    d788:	e01c2ba0 	ands	r2, ip, r0, lsr #23
    d78c:	101c3ba1 	andsne	r3, ip, r1, lsr #23
    d790:	1132000c 	teqne	r2, ip
    d794:	1133000c 	teqne	r3, ip
    d798:	0a00003a 	beq	d888 <__aeabi_fdiv+0x104>
    d79c:	e0422003 	sub	r2, r2, r3
    d7a0:	e020c001 	eor	ip, r0, r1
    d7a4:	e1b01481 	lsls	r1, r1, #9
    d7a8:	e1a00480 	lsl	r0, r0, #9
    d7ac:	0a00001c 	beq	d824 <__aeabi_fdiv+0xa0>
    d7b0:	e3a03201 	mov	r3, #268435456	; 0x10000000
    d7b4:	e1831221 	orr	r1, r3, r1, lsr #4
    d7b8:	e1833220 	orr	r3, r3, r0, lsr #4
    d7bc:	e20c0102 	and	r0, ip, #-2147483648	; 0x80000000
    d7c0:	e1530001 	cmp	r3, r1
    d7c4:	31a03083 	lslcc	r3, r3, #1
    d7c8:	e2a2207d 	adc	r2, r2, #125, 0	; 0x7d
    d7cc:	e3a0c502 	mov	ip, #8388608	; 0x800000
    d7d0:	e1530001 	cmp	r3, r1
    d7d4:	20433001 	subcs	r3, r3, r1
    d7d8:	2180000c 	orrcs	r0, r0, ip
    d7dc:	e15300a1 	cmp	r3, r1, lsr #1
    d7e0:	204330a1 	subcs	r3, r3, r1, lsr #1
    d7e4:	218000ac 	orrcs	r0, r0, ip, lsr #1
    d7e8:	e1530121 	cmp	r3, r1, lsr #2
    d7ec:	20433121 	subcs	r3, r3, r1, lsr #2
    d7f0:	2180012c 	orrcs	r0, r0, ip, lsr #2
    d7f4:	e15301a1 	cmp	r3, r1, lsr #3
    d7f8:	204331a1 	subcs	r3, r3, r1, lsr #3
    d7fc:	218001ac 	orrcs	r0, r0, ip, lsr #3
    d800:	e1b03203 	lsls	r3, r3, #4
    d804:	11b0c22c 	lsrsne	ip, ip, #4
    d808:	1afffff0 	bne	d7d0 <__aeabi_fdiv+0x4c>
    d80c:	e35200fd 	cmp	r2, #253, 0	; 0xfd
    d810:	8affff9d 	bhi	d68c <__aeabi_fmul+0xa0>
    d814:	e1530001 	cmp	r3, r1
    d818:	e0a00b82 	adc	r0, r0, r2, lsl #23
    d81c:	03c00001 	biceq	r0, r0, #1, 0
    d820:	e12fff1e 	bx	lr
    d824:	e20cc102 	and	ip, ip, #-2147483648	; 0x80000000
    d828:	e18c04a0 	orr	r0, ip, r0, lsr #9
    d82c:	e292207f 	adds	r2, r2, #127, 0	; 0x7f
    d830:	c27230ff 	rsbsgt	r3, r2, #255, 0	; 0xff
    d834:	c1800b82 	orrgt	r0, r0, r2, lsl #23
    d838:	c12fff1e 	bxgt	lr
    d83c:	e3800502 	orr	r0, r0, #8388608	; 0x800000
    d840:	e3a03000 	mov	r3, #0, 0
    d844:	e2522001 	subs	r2, r2, #1, 0
    d848:	eaffff8f 	b	d68c <__aeabi_fmul+0xa0>
    d84c:	e3320000 	teq	r2, #0, 0
    d850:	e200c102 	and	ip, r0, #-2147483648	; 0x80000000
    d854:	01a00080 	lsleq	r0, r0, #1
    d858:	03100502 	tsteq	r0, #8388608	; 0x800000
    d85c:	02422001 	subeq	r2, r2, #1, 0
    d860:	0afffffb 	beq	d854 <__aeabi_fdiv+0xd0>
    d864:	e180000c 	orr	r0, r0, ip
    d868:	e3330000 	teq	r3, #0, 0
    d86c:	e201c102 	and	ip, r1, #-2147483648	; 0x80000000
    d870:	01a01081 	lsleq	r1, r1, #1
    d874:	03110502 	tsteq	r1, #8388608	; 0x800000
    d878:	02433001 	subeq	r3, r3, #1, 0
    d87c:	0afffffb 	beq	d870 <__aeabi_fdiv+0xec>
    d880:	e181100c 	orr	r1, r1, ip
    d884:	eaffffc4 	b	d79c <__aeabi_fdiv+0x18>
    d888:	e00c3ba1 	and	r3, ip, r1, lsr #23
    d88c:	e132000c 	teq	r2, ip
    d890:	1a000005 	bne	d8ac <__aeabi_fdiv+0x128>
    d894:	e1b02480 	lsls	r2, r0, #9
    d898:	1affffb6 	bne	d778 <__aeabi_fmul+0x18c>
    d89c:	e133000c 	teq	r3, ip
    d8a0:	1affffaf 	bne	d764 <__aeabi_fmul+0x178>
    d8a4:	e1a00001 	mov	r0, r1
    d8a8:	eaffffb2 	b	d778 <__aeabi_fmul+0x18c>
    d8ac:	e133000c 	teq	r3, ip
    d8b0:	1a000003 	bne	d8c4 <__aeabi_fdiv+0x140>
    d8b4:	e1b03481 	lsls	r3, r1, #9
    d8b8:	0affff97 	beq	d71c <__aeabi_fmul+0x130>
    d8bc:	e1a00001 	mov	r0, r1
    d8c0:	eaffffac 	b	d778 <__aeabi_fmul+0x18c>
    d8c4:	e3d0c102 	bics	ip, r0, #-2147483648	; 0x80000000
    d8c8:	13d1c102 	bicsne	ip, r1, #-2147483648	; 0x80000000
    d8cc:	1affffde 	bne	d84c <__aeabi_fdiv+0xc8>
    d8d0:	e3d02102 	bics	r2, r0, #-2147483648	; 0x80000000
    d8d4:	1affffa2 	bne	d764 <__aeabi_fmul+0x178>
    d8d8:	e3d13102 	bics	r3, r1, #-2147483648	; 0x80000000
    d8dc:	1affff8e 	bne	d71c <__aeabi_fmul+0x130>
    d8e0:	eaffffa4 	b	d778 <__aeabi_fmul+0x18c>

0000d8e4 <__gesf2>:
    d8e4:	e3e0c000 	mvn	ip, #0, 0
    d8e8:	ea000002 	b	d8f8 <__cmpsf2+0x4>

0000d8ec <__lesf2>:
    d8ec:	e3a0c001 	mov	ip, #1, 0
    d8f0:	ea000000 	b	d8f8 <__cmpsf2+0x4>

0000d8f4 <__cmpsf2>:
    d8f4:	e3a0c001 	mov	ip, #1, 0
    d8f8:	e52dc004 	push	{ip}		; (str ip, [sp, #-4]!)
    d8fc:	e1a02080 	lsl	r2, r0, #1
    d900:	e1a03081 	lsl	r3, r1, #1
    d904:	e1f0cc42 	mvns	ip, r2, asr #24
    d908:	11f0cc43 	mvnsne	ip, r3, asr #24
    d90c:	0a000007 	beq	d930 <__cmpsf2+0x3c>
    d910:	e28dd004 	add	sp, sp, #4, 0
    d914:	e192c0a3 	orrs	ip, r2, r3, lsr #1
    d918:	11300001 	teqne	r0, r1
    d91c:	50520003 	subspl	r0, r2, r3
    d920:	81a00fc1 	asrhi	r0, r1, #31
    d924:	31e00fc1 	mvncc	r0, r1, asr #31
    d928:	13800001 	orrne	r0, r0, #1, 0
    d92c:	e12fff1e 	bx	lr
    d930:	e1f0cc42 	mvns	ip, r2, asr #24
    d934:	1a000001 	bne	d940 <__cmpsf2+0x4c>
    d938:	e1b0c480 	lsls	ip, r0, #9
    d93c:	1a000003 	bne	d950 <__cmpsf2+0x5c>
    d940:	e1f0cc43 	mvns	ip, r3, asr #24
    d944:	1afffff1 	bne	d910 <__cmpsf2+0x1c>
    d948:	e1b0c481 	lsls	ip, r1, #9
    d94c:	0affffef 	beq	d910 <__cmpsf2+0x1c>
    d950:	e49d0004 	pop	{r0}		; (ldr r0, [sp], #4)
    d954:	e12fff1e 	bx	lr

0000d958 <__aeabi_cfrcmple>:
    d958:	e1a0c000 	mov	ip, r0
    d95c:	e1a00001 	mov	r0, r1
    d960:	e1a0100c 	mov	r1, ip
    d964:	eaffffff 	b	d968 <__aeabi_cfcmpeq>

0000d968 <__aeabi_cfcmpeq>:
    d968:	e92d400f 	push	{r0, r1, r2, r3, lr}
    d96c:	ebffffe0 	bl	d8f4 <__cmpsf2>
    d970:	e3500000 	cmp	r0, #0, 0
    d974:	43700000 	cmnmi	r0, #0, 0
    d978:	e8bd400f 	pop	{r0, r1, r2, r3, lr}
    d97c:	e12fff1e 	bx	lr

0000d980 <__aeabi_fcmpeq>:
    d980:	e52de008 	str	lr, [sp, #-8]!
    d984:	ebfffff7 	bl	d968 <__aeabi_cfcmpeq>
    d988:	03a00001 	moveq	r0, #1, 0
    d98c:	13a00000 	movne	r0, #0, 0
    d990:	e49de008 	ldr	lr, [sp], #8
    d994:	e12fff1e 	bx	lr

0000d998 <__aeabi_fcmplt>:
    d998:	e52de008 	str	lr, [sp, #-8]!
    d99c:	ebfffff1 	bl	d968 <__aeabi_cfcmpeq>
    d9a0:	33a00001 	movcc	r0, #1, 0
    d9a4:	23a00000 	movcs	r0, #0, 0
    d9a8:	e49de008 	ldr	lr, [sp], #8
    d9ac:	e12fff1e 	bx	lr

0000d9b0 <__aeabi_fcmple>:
    d9b0:	e52de008 	str	lr, [sp, #-8]!
    d9b4:	ebffffeb 	bl	d968 <__aeabi_cfcmpeq>
    d9b8:	93a00001 	movls	r0, #1, 0
    d9bc:	83a00000 	movhi	r0, #0, 0
    d9c0:	e49de008 	ldr	lr, [sp], #8
    d9c4:	e12fff1e 	bx	lr

0000d9c8 <__aeabi_fcmpge>:
    d9c8:	e52de008 	str	lr, [sp, #-8]!
    d9cc:	ebffffe1 	bl	d958 <__aeabi_cfrcmple>
    d9d0:	93a00001 	movls	r0, #1, 0
    d9d4:	83a00000 	movhi	r0, #0, 0
    d9d8:	e49de008 	ldr	lr, [sp], #8
    d9dc:	e12fff1e 	bx	lr

0000d9e0 <__aeabi_fcmpgt>:
    d9e0:	e52de008 	str	lr, [sp, #-8]!
    d9e4:	ebffffdb 	bl	d958 <__aeabi_cfrcmple>
    d9e8:	33a00001 	movcc	r0, #1, 0
    d9ec:	23a00000 	movcs	r0, #0, 0
    d9f0:	e49de008 	ldr	lr, [sp], #8
    d9f4:	e12fff1e 	bx	lr

0000d9f8 <__aeabi_f2iz>:
    d9f8:	e1a02080 	lsl	r2, r0, #1
    d9fc:	e352047f 	cmp	r2, #2130706432	; 0x7f000000
    da00:	3a000008 	bcc	da28 <__aeabi_f2iz+0x30>
    da04:	e3a0309e 	mov	r3, #158, 0	; 0x9e
    da08:	e0532c22 	subs	r2, r3, r2, lsr #24
    da0c:	9a000007 	bls	da30 <__aeabi_f2iz+0x38>
    da10:	e1a03400 	lsl	r3, r0, #8
    da14:	e3833102 	orr	r3, r3, #-2147483648	; 0x80000000
    da18:	e3100102 	tst	r0, #-2147483648	; 0x80000000
    da1c:	e1a00233 	lsr	r0, r3, r2
    da20:	12600000 	rsbne	r0, r0, #0, 0
    da24:	e12fff1e 	bx	lr
    da28:	e3a00000 	mov	r0, #0, 0
    da2c:	e12fff1e 	bx	lr
    da30:	e3720061 	cmn	r2, #97, 0	; 0x61
    da34:	1a000001 	bne	da40 <__aeabi_f2iz+0x48>
    da38:	e1b02480 	lsls	r2, r0, #9
    da3c:	1a000002 	bne	da4c <__aeabi_f2iz+0x54>
    da40:	e2100102 	ands	r0, r0, #-2147483648	; 0x80000000
    da44:	03e00102 	mvneq	r0, #-2147483648	; 0x80000000
    da48:	e12fff1e 	bx	lr
    da4c:	e3a00000 	mov	r0, #0, 0
    da50:	e12fff1e 	bx	lr

0000da54 <__aeabi_uldivmod>:
    da54:	e3530000 	cmp	r3, #0, 0
    da58:	03520000 	cmpeq	r2, #0, 0
    da5c:	1a000004 	bne	da74 <__aeabi_uldivmod+0x20>
    da60:	e3510000 	cmp	r1, #0, 0
    da64:	03500000 	cmpeq	r0, #0, 0
    da68:	13e01000 	mvnne	r1, #0, 0
    da6c:	13e00000 	mvnne	r0, #0, 0
    da70:	eafffb5e 	b	c7f0 <__aeabi_idiv0>
    da74:	e24dd008 	sub	sp, sp, #8, 0
    da78:	e92d6000 	push	{sp, lr}
    da7c:	eb000014 	bl	dad4 <__gnu_uldivmod_helper>
    da80:	e59de004 	ldr	lr, [sp, #4]
    da84:	e28dd008 	add	sp, sp, #8, 0
    da88:	e8bd000c 	pop	{r2, r3}
    da8c:	e12fff1e 	bx	lr

0000da90 <__gnu_ldivmod_helper>:
    da90:	e92d47f0 	push	{r4, r5, r6, r7, r8, r9, sl, lr}
    da94:	e59d9020 	ldr	r9, [sp, #32]
    da98:	e1a08002 	mov	r8, r2
    da9c:	e1a0a003 	mov	sl, r3
    daa0:	e1a06000 	mov	r6, r0
    daa4:	e1a07001 	mov	r7, r1
    daa8:	eb000019 	bl	db14 <__divdi3>
    daac:	e0030198 	mul	r3, r8, r1
    dab0:	e1a02000 	mov	r2, r0
    dab4:	e0854098 	umull	r4, r5, r8, r0
    dab8:	e022329a 	mla	r2, sl, r2, r3
    dabc:	e0825005 	add	r5, r2, r5
    dac0:	e0564004 	subs	r4, r6, r4
    dac4:	e0c75005 	sbc	r5, r7, r5
    dac8:	e8890030 	stm	r9, {r4, r5}
    dacc:	e8bd47f0 	pop	{r4, r5, r6, r7, r8, r9, sl, lr}
    dad0:	e12fff1e 	bx	lr

0000dad4 <__gnu_uldivmod_helper>:
    dad4:	e92d43f8 	push	{r3, r4, r5, r6, r7, r8, r9, lr}
    dad8:	e59d9020 	ldr	r9, [sp, #32]
    dadc:	e1a06000 	mov	r6, r0
    dae0:	e1a07001 	mov	r7, r1
    dae4:	e1a08002 	mov	r8, r2
    dae8:	e1a04003 	mov	r4, r3
    daec:	eb00013c 	bl	dfe4 <__udivdi3>
    daf0:	e0030490 	mul	r3, r0, r4
    daf4:	e0854890 	umull	r4, r5, r0, r8
    daf8:	e0283891 	mla	r8, r1, r8, r3
    dafc:	e0885005 	add	r5, r8, r5
    db00:	e0564004 	subs	r4, r6, r4
    db04:	e0c75005 	sbc	r5, r7, r5
    db08:	e8890030 	stm	r9, {r4, r5}
    db0c:	e8bd43f8 	pop	{r3, r4, r5, r6, r7, r8, r9, lr}
    db10:	e12fff1e 	bx	lr

0000db14 <__divdi3>:
    db14:	e92d4ff0 	push	{r4, r5, r6, r7, r8, r9, sl, fp, lr}
    db18:	e2704000 	rsbs	r4, r0, #0, 0
    db1c:	e2e15000 	rsc	r5, r1, #0, 0
    db20:	e3510000 	cmp	r1, #0, 0
    db24:	e3e06000 	mvn	r6, #0, 0
    db28:	a1a04000 	movge	r4, r0
    db2c:	a1a05001 	movge	r5, r1
    db30:	a3a06000 	movge	r6, #0, 0
    db34:	e3530000 	cmp	r3, #0, 0
    db38:	e24dd014 	sub	sp, sp, #20, 0
    db3c:	ba000098 	blt	dda4 <__divdi3+0x290>
    db40:	e3530000 	cmp	r3, #0, 0
    db44:	e1a0c004 	mov	ip, r4
    db48:	e1a0b005 	mov	fp, r5
    db4c:	e1a0a002 	mov	sl, r2
    db50:	e1a01003 	mov	r1, r3
    db54:	e1a08002 	mov	r8, r2
    db58:	e1a07004 	mov	r7, r4
    db5c:	e1a09005 	mov	r9, r5
    db60:	1a000040 	bne	dc68 <__divdi3+0x154>
    db64:	e1520005 	cmp	r2, r5
    db68:	9a000052 	bls	dcb8 <__divdi3+0x1a4>
    db6c:	e1a00002 	mov	r0, r2
    db70:	eb000237 	bl	e454 <__clzsi2>
    db74:	e3500000 	cmp	r0, #0, 0
    db78:	12603020 	rsbne	r3, r0, #32, 0
    db7c:	11a03334 	lsrne	r3, r4, r3
    db80:	11a0801a 	lslne	r8, sl, r0
    db84:	11839015 	orrne	r9, r3, r5, lsl r0
    db88:	11a07014 	lslne	r7, r4, r0
    db8c:	e1a04828 	lsr	r4, r8, #16
    db90:	e1a01004 	mov	r1, r4
    db94:	e1a00009 	mov	r0, r9
    db98:	ebfffacf 	bl	c6dc <__udivsi3>
    db9c:	e1a01004 	mov	r1, r4
    dba0:	e1a0b000 	mov	fp, r0
    dba4:	e1a00009 	mov	r0, r9
    dba8:	ebfffb08 	bl	c7d0 <__aeabi_uidivmod>
    dbac:	e1a0a808 	lsl	sl, r8, #16
    dbb0:	e1a0a82a 	lsr	sl, sl, #16
    dbb4:	e0000b9a 	mul	r0, sl, fp
    dbb8:	e1a02827 	lsr	r2, r7, #16
    dbbc:	e1821801 	orr	r1, r2, r1, lsl #16
    dbc0:	e1500001 	cmp	r0, r1
    dbc4:	9a000007 	bls	dbe8 <__divdi3+0xd4>
    dbc8:	e0911008 	adds	r1, r1, r8
    dbcc:	e24b3001 	sub	r3, fp, #1, 0
    dbd0:	2a000003 	bcs	dbe4 <__divdi3+0xd0>
    dbd4:	e1500001 	cmp	r0, r1
    dbd8:	824bb002 	subhi	fp, fp, #2, 0
    dbdc:	80811008 	addhi	r1, r1, r8
    dbe0:	8a000000 	bhi	dbe8 <__divdi3+0xd4>
    dbe4:	e1a0b003 	mov	fp, r3
    dbe8:	e0609001 	rsb	r9, r0, r1
    dbec:	e1a00009 	mov	r0, r9
    dbf0:	e1a01004 	mov	r1, r4
    dbf4:	ebfffab8 	bl	c6dc <__udivsi3>
    dbf8:	e1a01004 	mov	r1, r4
    dbfc:	e1a05000 	mov	r5, r0
    dc00:	e1a00009 	mov	r0, r9
    dc04:	ebfffaf1 	bl	c7d0 <__aeabi_uidivmod>
    dc08:	e00a0a95 	mul	sl, r5, sl
    dc0c:	e1a07807 	lsl	r7, r7, #16
    dc10:	e1a07827 	lsr	r7, r7, #16
    dc14:	e1871801 	orr	r1, r7, r1, lsl #16
    dc18:	e15a0001 	cmp	sl, r1
    dc1c:	9a000006 	bls	dc3c <__divdi3+0x128>
    dc20:	e0918008 	adds	r8, r1, r8
    dc24:	e2453001 	sub	r3, r5, #1, 0
    dc28:	2a000002 	bcs	dc38 <__divdi3+0x124>
    dc2c:	e15a0008 	cmp	sl, r8
    dc30:	82455002 	subhi	r5, r5, #2, 0
    dc34:	8a000000 	bhi	dc3c <__divdi3+0x128>
    dc38:	e1a05003 	mov	r5, r3
    dc3c:	e185380b 	orr	r3, r5, fp, lsl #16
    dc40:	e3a04000 	mov	r4, #0, 0
    dc44:	e3560000 	cmp	r6, #0, 0
    dc48:	e1a00003 	mov	r0, r3
    dc4c:	e1a01004 	mov	r1, r4
    dc50:	0a000001 	beq	dc5c <__divdi3+0x148>
    dc54:	e2700000 	rsbs	r0, r0, #0, 0
    dc58:	e2e11000 	rsc	r1, r1, #0, 0
    dc5c:	e28dd014 	add	sp, sp, #20, 0
    dc60:	e8bd4ff0 	pop	{r4, r5, r6, r7, r8, r9, sl, fp, lr}
    dc64:	e12fff1e 	bx	lr
    dc68:	e1530005 	cmp	r3, r5
    dc6c:	83a04000 	movhi	r4, #0, 0
    dc70:	81a03004 	movhi	r3, r4
    dc74:	8afffff2 	bhi	dc44 <__divdi3+0x130>
    dc78:	e1a00003 	mov	r0, r3
    dc7c:	e58d100c 	str	r1, [sp, #12]
    dc80:	e58dc008 	str	ip, [sp, #8]
    dc84:	eb0001f2 	bl	e454 <__clzsi2>
    dc88:	e2505000 	subs	r5, r0, #0, 0
    dc8c:	e59d100c 	ldr	r1, [sp, #12]
    dc90:	e59dc008 	ldr	ip, [sp, #8]
    dc94:	1a00007f 	bne	de98 <__divdi3+0x384>
    dc98:	e151000b 	cmp	r1, fp
    dc9c:	215a000c 	cmpcs	sl, ip
    dca0:	83a04000 	movhi	r4, #0, 0
    dca4:	93a04001 	movls	r4, #1, 0
    dca8:	93a03001 	movls	r3, #1, 0
    dcac:	91a04005 	movls	r4, r5
    dcb0:	81a03004 	movhi	r3, r4
    dcb4:	eaffffe2 	b	dc44 <__divdi3+0x130>
    dcb8:	e3520000 	cmp	r2, #0, 0
    dcbc:	1a000003 	bne	dcd0 <__divdi3+0x1bc>
    dcc0:	e1a01002 	mov	r1, r2
    dcc4:	e3a00001 	mov	r0, #1, 0
    dcc8:	ebfffa83 	bl	c6dc <__udivsi3>
    dccc:	e1a08000 	mov	r8, r0
    dcd0:	e1a00008 	mov	r0, r8
    dcd4:	eb0001de 	bl	e454 <__clzsi2>
    dcd8:	e2503000 	subs	r3, r0, #0, 0
    dcdc:	1a000034 	bne	ddb4 <__divdi3+0x2a0>
    dce0:	e1a0a808 	lsl	sl, r8, #16
    dce4:	e0689009 	rsb	r9, r8, r9
    dce8:	e1a0a82a 	lsr	sl, sl, #16
    dcec:	e1a05828 	lsr	r5, r8, #16
    dcf0:	e3a04001 	mov	r4, #1, 0
    dcf4:	e1a01005 	mov	r1, r5
    dcf8:	e1a00009 	mov	r0, r9
    dcfc:	ebfffa76 	bl	c6dc <__udivsi3>
    dd00:	e1a01005 	mov	r1, r5
    dd04:	e1a0b000 	mov	fp, r0
    dd08:	e1a00009 	mov	r0, r9
    dd0c:	ebfffaaf 	bl	c7d0 <__aeabi_uidivmod>
    dd10:	e0000b9a 	mul	r0, sl, fp
    dd14:	e1a02827 	lsr	r2, r7, #16
    dd18:	e1821801 	orr	r1, r2, r1, lsl #16
    dd1c:	e1500001 	cmp	r0, r1
    dd20:	9a000006 	bls	dd40 <__divdi3+0x22c>
    dd24:	e0911008 	adds	r1, r1, r8
    dd28:	e24b3001 	sub	r3, fp, #1, 0
    dd2c:	2a0000a4 	bcs	dfc4 <__divdi3+0x4b0>
    dd30:	e1500001 	cmp	r0, r1
    dd34:	824bb002 	subhi	fp, fp, #2, 0
    dd38:	80811008 	addhi	r1, r1, r8
    dd3c:	9a0000a0 	bls	dfc4 <__divdi3+0x4b0>
    dd40:	e0602001 	rsb	r2, r0, r1
    dd44:	e1a00002 	mov	r0, r2
    dd48:	e1a01005 	mov	r1, r5
    dd4c:	e58d200c 	str	r2, [sp, #12]
    dd50:	ebfffa61 	bl	c6dc <__udivsi3>
    dd54:	e59d200c 	ldr	r2, [sp, #12]
    dd58:	e1a09000 	mov	r9, r0
    dd5c:	e1a01005 	mov	r1, r5
    dd60:	e1a00002 	mov	r0, r2
    dd64:	ebfffa99 	bl	c7d0 <__aeabi_uidivmod>
    dd68:	e00a0a99 	mul	sl, r9, sl
    dd6c:	e1a07807 	lsl	r7, r7, #16
    dd70:	e1a07827 	lsr	r7, r7, #16
    dd74:	e1871801 	orr	r1, r7, r1, lsl #16
    dd78:	e15a0001 	cmp	sl, r1
    dd7c:	9a000006 	bls	dd9c <__divdi3+0x288>
    dd80:	e0918008 	adds	r8, r1, r8
    dd84:	e2493001 	sub	r3, r9, #1, 0
    dd88:	2a000002 	bcs	dd98 <__divdi3+0x284>
    dd8c:	e15a0008 	cmp	sl, r8
    dd90:	82499002 	subhi	r9, r9, #2, 0
    dd94:	8a000000 	bhi	dd9c <__divdi3+0x288>
    dd98:	e1a09003 	mov	r9, r3
    dd9c:	e189380b 	orr	r3, r9, fp, lsl #16
    dda0:	eaffffa7 	b	dc44 <__divdi3+0x130>
    dda4:	e1e06006 	mvn	r6, r6
    dda8:	e2722000 	rsbs	r2, r2, #0, 0
    ddac:	e2e33000 	rsc	r3, r3, #0, 0
    ddb0:	eaffff62 	b	db40 <__divdi3+0x2c>
    ddb4:	e1a08318 	lsl	r8, r8, r3
    ddb8:	e263b020 	rsb	fp, r3, #32, 0
    ddbc:	e1a04b39 	lsr	r4, r9, fp
    ddc0:	e1a0bb37 	lsr	fp, r7, fp
    ddc4:	e1a05828 	lsr	r5, r8, #16
    ddc8:	e1a01005 	mov	r1, r5
    ddcc:	e1a00004 	mov	r0, r4
    ddd0:	e18bb319 	orr	fp, fp, r9, lsl r3
    ddd4:	e1a07317 	lsl	r7, r7, r3
    ddd8:	ebfffa3f 	bl	c6dc <__udivsi3>
    dddc:	e1a01005 	mov	r1, r5
    dde0:	e1a03000 	mov	r3, r0
    dde4:	e1a00004 	mov	r0, r4
    dde8:	e58d3004 	str	r3, [sp, #4]
    ddec:	ebfffa77 	bl	c7d0 <__aeabi_uidivmod>
    ddf0:	e1a0a808 	lsl	sl, r8, #16
    ddf4:	e59d3004 	ldr	r3, [sp, #4]
    ddf8:	e1a0a82a 	lsr	sl, sl, #16
    ddfc:	e000039a 	mul	r0, sl, r3
    de00:	e1a0282b 	lsr	r2, fp, #16
    de04:	e1821801 	orr	r1, r2, r1, lsl #16
    de08:	e1500001 	cmp	r0, r1
    de0c:	9a000006 	bls	de2c <__divdi3+0x318>
    de10:	e0911008 	adds	r1, r1, r8
    de14:	e2432001 	sub	r2, r3, #1, 0
    de18:	2a00006f 	bcs	dfdc <__divdi3+0x4c8>
    de1c:	e1500001 	cmp	r0, r1
    de20:	82433002 	subhi	r3, r3, #2, 0
    de24:	80811008 	addhi	r1, r1, r8
    de28:	9a00006b 	bls	dfdc <__divdi3+0x4c8>
    de2c:	e0609001 	rsb	r9, r0, r1
    de30:	e1a00009 	mov	r0, r9
    de34:	e1a01005 	mov	r1, r5
    de38:	e58d3004 	str	r3, [sp, #4]
    de3c:	ebfffa26 	bl	c6dc <__udivsi3>
    de40:	e1a01005 	mov	r1, r5
    de44:	e1a04000 	mov	r4, r0
    de48:	e1a00009 	mov	r0, r9
    de4c:	ebfffa5f 	bl	c7d0 <__aeabi_uidivmod>
    de50:	e009049a 	mul	r9, sl, r4
    de54:	e1a0b80b 	lsl	fp, fp, #16
    de58:	e1a0b82b 	lsr	fp, fp, #16
    de5c:	e18b1801 	orr	r1, fp, r1, lsl #16
    de60:	e1590001 	cmp	r9, r1
    de64:	e59d3004 	ldr	r3, [sp, #4]
    de68:	9a000007 	bls	de8c <__divdi3+0x378>
    de6c:	e0911008 	adds	r1, r1, r8
    de70:	e2442001 	sub	r2, r4, #1, 0
    de74:	2a000003 	bcs	de88 <__divdi3+0x374>
    de78:	e1590001 	cmp	r9, r1
    de7c:	82444002 	subhi	r4, r4, #2, 0
    de80:	80811008 	addhi	r1, r1, r8
    de84:	8a000000 	bhi	de8c <__divdi3+0x378>
    de88:	e1a04002 	mov	r4, r2
    de8c:	e0699001 	rsb	r9, r9, r1
    de90:	e1844803 	orr	r4, r4, r3, lsl #16
    de94:	eaffff96 	b	dcf4 <__divdi3+0x1e0>
    de98:	e2653020 	rsb	r3, r5, #32, 0
    de9c:	e1a0833a 	lsr	r8, sl, r3
    dea0:	e1888511 	orr	r8, r8, r1, lsl r5
    dea4:	e1a0233b 	lsr	r2, fp, r3
    dea8:	e1a03337 	lsr	r3, r7, r3
    deac:	e1a09828 	lsr	r9, r8, #16
    deb0:	e1a01009 	mov	r1, r9
    deb4:	e1a00002 	mov	r0, r2
    deb8:	e183b51b 	orr	fp, r3, fp, lsl r5
    debc:	e58d200c 	str	r2, [sp, #12]
    dec0:	ebfffa05 	bl	c6dc <__udivsi3>
    dec4:	e59d200c 	ldr	r2, [sp, #12]
    dec8:	e1a03000 	mov	r3, r0
    decc:	e1a01009 	mov	r1, r9
    ded0:	e1a00002 	mov	r0, r2
    ded4:	e58d3004 	str	r3, [sp, #4]
    ded8:	ebfffa3c 	bl	c7d0 <__aeabi_uidivmod>
    dedc:	e1a04808 	lsl	r4, r8, #16
    dee0:	e59d3004 	ldr	r3, [sp, #4]
    dee4:	e1a04824 	lsr	r4, r4, #16
    dee8:	e0000394 	mul	r0, r4, r3
    deec:	e1a0282b 	lsr	r2, fp, #16
    def0:	e1821801 	orr	r1, r2, r1, lsl #16
    def4:	e1500001 	cmp	r0, r1
    def8:	e1a0a51a 	lsl	sl, sl, r5
    defc:	9a000006 	bls	df1c <__divdi3+0x408>
    df00:	e0911008 	adds	r1, r1, r8
    df04:	e2432001 	sub	r2, r3, #1, 0
    df08:	2a000031 	bcs	dfd4 <__divdi3+0x4c0>
    df0c:	e1500001 	cmp	r0, r1
    df10:	82433002 	subhi	r3, r3, #2, 0
    df14:	80811008 	addhi	r1, r1, r8
    df18:	9a00002d 	bls	dfd4 <__divdi3+0x4c0>
    df1c:	e060c001 	rsb	ip, r0, r1
    df20:	e1a0000c 	mov	r0, ip
    df24:	e1a01009 	mov	r1, r9
    df28:	e98d1008 	stmib	sp, {r3, ip}
    df2c:	ebfff9ea 	bl	c6dc <__udivsi3>
    df30:	e59dc008 	ldr	ip, [sp, #8]
    df34:	e1a02000 	mov	r2, r0
    df38:	e1a01009 	mov	r1, r9
    df3c:	e1a0000c 	mov	r0, ip
    df40:	e58d200c 	str	r2, [sp, #12]
    df44:	ebfffa21 	bl	c7d0 <__aeabi_uidivmod>
    df48:	e59d200c 	ldr	r2, [sp, #12]
    df4c:	e0040492 	mul	r4, r2, r4
    df50:	e1a0b80b 	lsl	fp, fp, #16
    df54:	e1a0c82b 	lsr	ip, fp, #16
    df58:	e18cc801 	orr	ip, ip, r1, lsl #16
    df5c:	e154000c 	cmp	r4, ip
    df60:	e59d3004 	ldr	r3, [sp, #4]
    df64:	9a000006 	bls	df84 <__divdi3+0x470>
    df68:	e09cc008 	adds	ip, ip, r8
    df6c:	e2421001 	sub	r1, r2, #1, 0
    df70:	2a000015 	bcs	dfcc <__divdi3+0x4b8>
    df74:	e154000c 	cmp	r4, ip
    df78:	82422002 	subhi	r2, r2, #2, 0
    df7c:	808cc008 	addhi	ip, ip, r8
    df80:	9a000011 	bls	dfcc <__divdi3+0x4b8>
    df84:	e1821803 	orr	r1, r2, r3, lsl #16
    df88:	e0832a91 	umull	r2, r3, r1, sl
    df8c:	e064400c 	rsb	r4, r4, ip
    df90:	e1540003 	cmp	r4, r3
    df94:	3a000007 	bcc	dfb8 <__divdi3+0x4a4>
    df98:	13a04000 	movne	r4, #0, 0
    df9c:	03a04001 	moveq	r4, #1, 0
    dfa0:	e1520517 	cmp	r2, r7, lsl r5
    dfa4:	93a04000 	movls	r4, #0, 0
    dfa8:	82044001 	andhi	r4, r4, #1, 0
    dfac:	e3540000 	cmp	r4, #0, 0
    dfb0:	01a03001 	moveq	r3, r1
    dfb4:	0affff22 	beq	dc44 <__divdi3+0x130>
    dfb8:	e2413001 	sub	r3, r1, #1, 0
    dfbc:	e3a04000 	mov	r4, #0, 0
    dfc0:	eaffff1f 	b	dc44 <__divdi3+0x130>
    dfc4:	e1a0b003 	mov	fp, r3
    dfc8:	eaffff5c 	b	dd40 <__divdi3+0x22c>
    dfcc:	e1a02001 	mov	r2, r1
    dfd0:	eaffffeb 	b	df84 <__divdi3+0x470>
    dfd4:	e1a03002 	mov	r3, r2
    dfd8:	eaffffcf 	b	df1c <__divdi3+0x408>
    dfdc:	e1a03002 	mov	r3, r2
    dfe0:	eaffff91 	b	de2c <__divdi3+0x318>

0000dfe4 <__udivdi3>:
    dfe4:	e92d4ff0 	push	{r4, r5, r6, r7, r8, r9, sl, fp, lr}
    dfe8:	e3530000 	cmp	r3, #0, 0
    dfec:	e24dd00c 	sub	sp, sp, #12, 0
    dff0:	e1a07003 	mov	r7, r3
    dff4:	e1a08000 	mov	r8, r0
    dff8:	e1a05001 	mov	r5, r1
    dffc:	e1a06002 	mov	r6, r2
    e000:	e1a04002 	mov	r4, r2
    e004:	e1a09000 	mov	r9, r0
    e008:	e1a0a001 	mov	sl, r1
    e00c:	1a00003a 	bne	e0fc <__udivdi3+0x118>
    e010:	e1520001 	cmp	r2, r1
    e014:	9a000048 	bls	e13c <__udivdi3+0x158>
    e018:	e1a00002 	mov	r0, r2
    e01c:	eb00010c 	bl	e454 <__clzsi2>
    e020:	e3500000 	cmp	r0, #0, 0
    e024:	1260a020 	rsbne	sl, r0, #32, 0
    e028:	11a0aa38 	lsrne	sl, r8, sl
    e02c:	11a04016 	lslne	r4, r6, r0
    e030:	118aa015 	orrne	sl, sl, r5, lsl r0
    e034:	e1a05824 	lsr	r5, r4, #16
    e038:	11a09018 	lslne	r9, r8, r0
    e03c:	e1a01005 	mov	r1, r5
    e040:	e1a0000a 	mov	r0, sl
    e044:	ebfff9a4 	bl	c6dc <__udivsi3>
    e048:	e1a01005 	mov	r1, r5
    e04c:	e1a07000 	mov	r7, r0
    e050:	e1a0000a 	mov	r0, sl
    e054:	ebfff9dd 	bl	c7d0 <__aeabi_uidivmod>
    e058:	e1a08804 	lsl	r8, r4, #16
    e05c:	e1a08828 	lsr	r8, r8, #16
    e060:	e0000798 	mul	r0, r8, r7
    e064:	e1a03829 	lsr	r3, r9, #16
    e068:	e1831801 	orr	r1, r3, r1, lsl #16
    e06c:	e1500001 	cmp	r0, r1
    e070:	9a000007 	bls	e094 <__udivdi3+0xb0>
    e074:	e0911004 	adds	r1, r1, r4
    e078:	e2472001 	sub	r2, r7, #1, 0
    e07c:	2a000003 	bcs	e090 <__udivdi3+0xac>
    e080:	e1500001 	cmp	r0, r1
    e084:	82477002 	subhi	r7, r7, #2, 0
    e088:	80811004 	addhi	r1, r1, r4
    e08c:	8a000000 	bhi	e094 <__udivdi3+0xb0>
    e090:	e1a07002 	mov	r7, r2
    e094:	e060a001 	rsb	sl, r0, r1
    e098:	e1a0000a 	mov	r0, sl
    e09c:	e1a01005 	mov	r1, r5
    e0a0:	ebfff98d 	bl	c6dc <__udivsi3>
    e0a4:	e1a01005 	mov	r1, r5
    e0a8:	e1a06000 	mov	r6, r0
    e0ac:	e1a0000a 	mov	r0, sl
    e0b0:	ebfff9c6 	bl	c7d0 <__aeabi_uidivmod>
    e0b4:	e0080896 	mul	r8, r6, r8
    e0b8:	e1a09809 	lsl	r9, r9, #16
    e0bc:	e1a09829 	lsr	r9, r9, #16
    e0c0:	e1891801 	orr	r1, r9, r1, lsl #16
    e0c4:	e1580001 	cmp	r8, r1
    e0c8:	9a000005 	bls	e0e4 <__udivdi3+0x100>
    e0cc:	e0914004 	adds	r4, r1, r4
    e0d0:	e2463001 	sub	r3, r6, #1, 0
    e0d4:	2a0000cc 	bcs	e40c <__udivdi3+0x428>
    e0d8:	e1580004 	cmp	r8, r4
    e0dc:	82466002 	subhi	r6, r6, #2, 0
    e0e0:	9a0000c9 	bls	e40c <__udivdi3+0x428>
    e0e4:	e1860807 	orr	r0, r6, r7, lsl #16
    e0e8:	e3a06000 	mov	r6, #0, 0
    e0ec:	e1a01006 	mov	r1, r6
    e0f0:	e28dd00c 	add	sp, sp, #12, 0
    e0f4:	e8bd4ff0 	pop	{r4, r5, r6, r7, r8, r9, sl, fp, lr}
    e0f8:	e12fff1e 	bx	lr
    e0fc:	e1530001 	cmp	r3, r1
    e100:	83a06000 	movhi	r6, #0, 0
    e104:	81a00006 	movhi	r0, r6
    e108:	8afffff7 	bhi	e0ec <__udivdi3+0x108>
    e10c:	e1a00003 	mov	r0, r3
    e110:	eb0000cf 	bl	e454 <__clzsi2>
    e114:	e2509000 	subs	r9, r0, #0, 0
    e118:	1a000042 	bne	e228 <__udivdi3+0x244>
    e11c:	e1570005 	cmp	r7, r5
    e120:	21560008 	cmpcs	r6, r8
    e124:	83a06000 	movhi	r6, #0, 0
    e128:	93a06001 	movls	r6, #1, 0
    e12c:	93a00001 	movls	r0, #1, 0
    e130:	91a06009 	movls	r6, r9
    e134:	81a00006 	movhi	r0, r6
    e138:	eaffffeb 	b	e0ec <__udivdi3+0x108>
    e13c:	e3520000 	cmp	r2, #0, 0
    e140:	1a000003 	bne	e154 <__udivdi3+0x170>
    e144:	e1a01002 	mov	r1, r2
    e148:	e3a00001 	mov	r0, #1, 0
    e14c:	ebfff962 	bl	c6dc <__udivsi3>
    e150:	e1a04000 	mov	r4, r0
    e154:	e1a00004 	mov	r0, r4
    e158:	eb0000bd 	bl	e454 <__clzsi2>
    e15c:	e2503000 	subs	r3, r0, #0, 0
    e160:	1a000074 	bne	e338 <__udivdi3+0x354>
    e164:	e1a0a804 	lsl	sl, r4, #16
    e168:	e0645005 	rsb	r5, r4, r5
    e16c:	e1a0a82a 	lsr	sl, sl, #16
    e170:	e1a07824 	lsr	r7, r4, #16
    e174:	e3a06001 	mov	r6, #1, 0
    e178:	e1a01007 	mov	r1, r7
    e17c:	e1a00005 	mov	r0, r5
    e180:	ebfff955 	bl	c6dc <__udivsi3>
    e184:	e1a01007 	mov	r1, r7
    e188:	e1a08000 	mov	r8, r0
    e18c:	e1a00005 	mov	r0, r5
    e190:	ebfff98e 	bl	c7d0 <__aeabi_uidivmod>
    e194:	e000089a 	mul	r0, sl, r8
    e198:	e1a03829 	lsr	r3, r9, #16
    e19c:	e1831801 	orr	r1, r3, r1, lsl #16
    e1a0:	e1500001 	cmp	r0, r1
    e1a4:	9a000006 	bls	e1c4 <__udivdi3+0x1e0>
    e1a8:	e0911004 	adds	r1, r1, r4
    e1ac:	e2482001 	sub	r2, r8, #1, 0
    e1b0:	2a000097 	bcs	e414 <__udivdi3+0x430>
    e1b4:	e1500001 	cmp	r0, r1
    e1b8:	82488002 	subhi	r8, r8, #2, 0
    e1bc:	80811004 	addhi	r1, r1, r4
    e1c0:	9a000093 	bls	e414 <__udivdi3+0x430>
    e1c4:	e060b001 	rsb	fp, r0, r1
    e1c8:	e1a0000b 	mov	r0, fp
    e1cc:	e1a01007 	mov	r1, r7
    e1d0:	ebfff941 	bl	c6dc <__udivsi3>
    e1d4:	e1a01007 	mov	r1, r7
    e1d8:	e1a05000 	mov	r5, r0
    e1dc:	e1a0000b 	mov	r0, fp
    e1e0:	ebfff97a 	bl	c7d0 <__aeabi_uidivmod>
    e1e4:	e00a0a95 	mul	sl, r5, sl
    e1e8:	e1a09809 	lsl	r9, r9, #16
    e1ec:	e1a09829 	lsr	r9, r9, #16
    e1f0:	e1891801 	orr	r1, r9, r1, lsl #16
    e1f4:	e15a0001 	cmp	sl, r1
    e1f8:	9a000005 	bls	e214 <__udivdi3+0x230>
    e1fc:	e0914004 	adds	r4, r1, r4
    e200:	e2453001 	sub	r3, r5, #1, 0
    e204:	2a000084 	bcs	e41c <__udivdi3+0x438>
    e208:	e15a0004 	cmp	sl, r4
    e20c:	82455002 	subhi	r5, r5, #2, 0
    e210:	9a000081 	bls	e41c <__udivdi3+0x438>
    e214:	e1850808 	orr	r0, r5, r8, lsl #16
    e218:	e1a01006 	mov	r1, r6
    e21c:	e28dd00c 	add	sp, sp, #12, 0
    e220:	e8bd4ff0 	pop	{r4, r5, r6, r7, r8, r9, sl, fp, lr}
    e224:	e12fff1e 	bx	lr
    e228:	e2693020 	rsb	r3, r9, #32, 0
    e22c:	e1a02336 	lsr	r2, r6, r3
    e230:	e1827917 	orr	r7, r2, r7, lsl r9
    e234:	e1a02335 	lsr	r2, r5, r3
    e238:	e1a03338 	lsr	r3, r8, r3
    e23c:	e1a04827 	lsr	r4, r7, #16
    e240:	e1a01004 	mov	r1, r4
    e244:	e1a00002 	mov	r0, r2
    e248:	e1835915 	orr	r5, r3, r5, lsl r9
    e24c:	e58d2004 	str	r2, [sp, #4]
    e250:	ebfff921 	bl	c6dc <__udivsi3>
    e254:	e59d2004 	ldr	r2, [sp, #4]
    e258:	e1a0b000 	mov	fp, r0
    e25c:	e1a01004 	mov	r1, r4
    e260:	e1a00002 	mov	r0, r2
    e264:	ebfff959 	bl	c7d0 <__aeabi_uidivmod>
    e268:	e1a0a807 	lsl	sl, r7, #16
    e26c:	e1a0a82a 	lsr	sl, sl, #16
    e270:	e0000b9a 	mul	r0, sl, fp
    e274:	e1a03825 	lsr	r3, r5, #16
    e278:	e1831801 	orr	r1, r3, r1, lsl #16
    e27c:	e1500001 	cmp	r0, r1
    e280:	e1a06916 	lsl	r6, r6, r9
    e284:	9a000003 	bls	e298 <__udivdi3+0x2b4>
    e288:	e0911007 	adds	r1, r1, r7
    e28c:	e24b2001 	sub	r2, fp, #1, 0
    e290:	3a000068 	bcc	e438 <__udivdi3+0x454>
    e294:	e1a0b002 	mov	fp, r2
    e298:	e0603001 	rsb	r3, r0, r1
    e29c:	e1a00003 	mov	r0, r3
    e2a0:	e1a01004 	mov	r1, r4
    e2a4:	e58d3004 	str	r3, [sp, #4]
    e2a8:	ebfff90b 	bl	c6dc <__udivsi3>
    e2ac:	e59d3004 	ldr	r3, [sp, #4]
    e2b0:	e1a02000 	mov	r2, r0
    e2b4:	e1a01004 	mov	r1, r4
    e2b8:	e1a00003 	mov	r0, r3
    e2bc:	e58d2004 	str	r2, [sp, #4]
    e2c0:	ebfff942 	bl	c7d0 <__aeabi_uidivmod>
    e2c4:	e59d2004 	ldr	r2, [sp, #4]
    e2c8:	e00a0a92 	mul	sl, r2, sl
    e2cc:	e1a05805 	lsl	r5, r5, #16
    e2d0:	e1a05825 	lsr	r5, r5, #16
    e2d4:	e1851801 	orr	r1, r5, r1, lsl #16
    e2d8:	e15a0001 	cmp	sl, r1
    e2dc:	9a000003 	bls	e2f0 <__udivdi3+0x30c>
    e2e0:	e0911007 	adds	r1, r1, r7
    e2e4:	e2423001 	sub	r3, r2, #1, 0
    e2e8:	3a00004d 	bcc	e424 <__udivdi3+0x440>
    e2ec:	e1a02003 	mov	r2, r3
    e2f0:	e182080b 	orr	r0, r2, fp, lsl #16
    e2f4:	e0854690 	umull	r4, r5, r0, r6
    e2f8:	e06aa001 	rsb	sl, sl, r1
    e2fc:	e15a0005 	cmp	sl, r5
    e300:	3a000006 	bcc	e320 <__udivdi3+0x33c>
    e304:	13a06000 	movne	r6, #0, 0
    e308:	03a06001 	moveq	r6, #1, 0
    e30c:	e1540918 	cmp	r4, r8, lsl r9
    e310:	93a06000 	movls	r6, #0, 0
    e314:	82066001 	andhi	r6, r6, #1, 0
    e318:	e3560000 	cmp	r6, #0, 0
    e31c:	0affff72 	beq	e0ec <__udivdi3+0x108>
    e320:	e3a06000 	mov	r6, #0, 0
    e324:	e2400001 	sub	r0, r0, #1, 0
    e328:	e1a01006 	mov	r1, r6
    e32c:	e28dd00c 	add	sp, sp, #12, 0
    e330:	e8bd4ff0 	pop	{r4, r5, r6, r7, r8, r9, sl, fp, lr}
    e334:	e12fff1e 	bx	lr
    e338:	e1a04314 	lsl	r4, r4, r3
    e33c:	e263b020 	rsb	fp, r3, #32, 0
    e340:	e1a06b35 	lsr	r6, r5, fp
    e344:	e1a0bb38 	lsr	fp, r8, fp
    e348:	e1a07824 	lsr	r7, r4, #16
    e34c:	e1a01007 	mov	r1, r7
    e350:	e1a00006 	mov	r0, r6
    e354:	e1a09318 	lsl	r9, r8, r3
    e358:	e18bb315 	orr	fp, fp, r5, lsl r3
    e35c:	ebfff8de 	bl	c6dc <__udivsi3>
    e360:	e1a01007 	mov	r1, r7
    e364:	e1a08000 	mov	r8, r0
    e368:	e1a00006 	mov	r0, r6
    e36c:	ebfff917 	bl	c7d0 <__aeabi_uidivmod>
    e370:	e1a0a804 	lsl	sl, r4, #16
    e374:	e1a0a82a 	lsr	sl, sl, #16
    e378:	e000089a 	mul	r0, sl, r8
    e37c:	e1a0382b 	lsr	r3, fp, #16
    e380:	e1831801 	orr	r1, r3, r1, lsl #16
    e384:	e1500001 	cmp	r0, r1
    e388:	9a000006 	bls	e3a8 <__udivdi3+0x3c4>
    e38c:	e0911004 	adds	r1, r1, r4
    e390:	e2483001 	sub	r3, r8, #1, 0
    e394:	2a00002c 	bcs	e44c <__udivdi3+0x468>
    e398:	e1500001 	cmp	r0, r1
    e39c:	82488002 	subhi	r8, r8, #2, 0
    e3a0:	80811004 	addhi	r1, r1, r4
    e3a4:	9a000028 	bls	e44c <__udivdi3+0x468>
    e3a8:	e0605001 	rsb	r5, r0, r1
    e3ac:	e1a00005 	mov	r0, r5
    e3b0:	e1a01007 	mov	r1, r7
    e3b4:	ebfff8c8 	bl	c6dc <__udivsi3>
    e3b8:	e1a01007 	mov	r1, r7
    e3bc:	e1a06000 	mov	r6, r0
    e3c0:	e1a00005 	mov	r0, r5
    e3c4:	ebfff901 	bl	c7d0 <__aeabi_uidivmod>
    e3c8:	e005069a 	mul	r5, sl, r6
    e3cc:	e1a0b80b 	lsl	fp, fp, #16
    e3d0:	e1a0b82b 	lsr	fp, fp, #16
    e3d4:	e18b1801 	orr	r1, fp, r1, lsl #16
    e3d8:	e1550001 	cmp	r5, r1
    e3dc:	9a000007 	bls	e400 <__udivdi3+0x41c>
    e3e0:	e0911004 	adds	r1, r1, r4
    e3e4:	e2463001 	sub	r3, r6, #1, 0
    e3e8:	2a000003 	bcs	e3fc <__udivdi3+0x418>
    e3ec:	e1550001 	cmp	r5, r1
    e3f0:	82466002 	subhi	r6, r6, #2, 0
    e3f4:	80811004 	addhi	r1, r1, r4
    e3f8:	8a000000 	bhi	e400 <__udivdi3+0x41c>
    e3fc:	e1a06003 	mov	r6, r3
    e400:	e0655001 	rsb	r5, r5, r1
    e404:	e1866808 	orr	r6, r6, r8, lsl #16
    e408:	eaffff5a 	b	e178 <__udivdi3+0x194>
    e40c:	e1a06003 	mov	r6, r3
    e410:	eaffff33 	b	e0e4 <__udivdi3+0x100>
    e414:	e1a08002 	mov	r8, r2
    e418:	eaffff69 	b	e1c4 <__udivdi3+0x1e0>
    e41c:	e1a05003 	mov	r5, r3
    e420:	eaffff7b 	b	e214 <__udivdi3+0x230>
    e424:	e15a0001 	cmp	sl, r1
    e428:	82422002 	subhi	r2, r2, #2, 0
    e42c:	80811007 	addhi	r1, r1, r7
    e430:	8affffae 	bhi	e2f0 <__udivdi3+0x30c>
    e434:	eaffffac 	b	e2ec <__udivdi3+0x308>
    e438:	e1500001 	cmp	r0, r1
    e43c:	824bb002 	subhi	fp, fp, #2, 0
    e440:	80811007 	addhi	r1, r1, r7
    e444:	8affff93 	bhi	e298 <__udivdi3+0x2b4>
    e448:	eaffff91 	b	e294 <__udivdi3+0x2b0>
    e44c:	e1a08003 	mov	r8, r3
    e450:	eaffffd4 	b	e3a8 <__udivdi3+0x3c4>

0000e454 <__clzsi2>:
    e454:	e3a0101c 	mov	r1, #28, 0
    e458:	e3500801 	cmp	r0, #65536	; 0x10000
    e45c:	21a00820 	lsrcs	r0, r0, #16
    e460:	22411010 	subcs	r1, r1, #16, 0
    e464:	e3500c01 	cmp	r0, #256	; 0x100
    e468:	21a00420 	lsrcs	r0, r0, #8
    e46c:	22411008 	subcs	r1, r1, #8, 0
    e470:	e3500010 	cmp	r0, #16, 0
    e474:	21a00220 	lsrcs	r0, r0, #4
    e478:	22411004 	subcs	r1, r1, #4, 0
    e47c:	e28f2008 	add	r2, pc, #8, 0
    e480:	e7d20000 	ldrb	r0, [r2, r0]
    e484:	e0800001 	add	r0, r0, r1
    e488:	e12fff1e 	bx	lr
    e48c:	02020304 	.word	0x02020304
    e490:	01010101 	.word	0x01010101
	...

0000e49c <uart_init>:
    e49c:	e92d4010 	push	{r4, lr}
    e4a0:	eb0000a0 	bl	e728 <dev_barrier>
    e4a4:	e3a01002 	mov	r1, #2, 0
    e4a8:	e3a0000e 	mov	r0, #14, 0
    e4ac:	eb0000e4 	bl	e844 <gpio_set_function>
    e4b0:	e3a01002 	mov	r1, #2, 0
    e4b4:	e3a0000f 	mov	r0, #15, 0
    e4b8:	eb0000e1 	bl	e844 <gpio_set_function>
    e4bc:	eb000099 	bl	e728 <dev_barrier>
    e4c0:	e59f4074 	ldr	r4, [pc, #116]	; e53c <uart_init+0xa0>
    e4c4:	e1a00004 	mov	r0, r4
    e4c8:	ebffe6d7 	bl	802c <GET32>
    e4cc:	e3801001 	orr	r1, r0, #1, 0
    e4d0:	e1a00004 	mov	r0, r4
    e4d4:	ebffe6d2 	bl	8024 <PUT32>
    e4d8:	eb000092 	bl	e728 <dev_barrier>
    e4dc:	e284405c 	add	r4, r4, #92, 0	; 0x5c
    e4e0:	e3a01000 	mov	r1, #0, 0
    e4e4:	e1a00004 	mov	r0, r4
    e4e8:	ebffe6cd 	bl	8024 <PUT32>
    e4ec:	e3a01000 	mov	r1, #0, 0
    e4f0:	e59f0048 	ldr	r0, [pc, #72]	; e540 <uart_init+0xa4>
    e4f4:	ebffe6ca 	bl	8024 <PUT32>
    e4f8:	e3a01003 	mov	r1, #3, 0
    e4fc:	e59f0040 	ldr	r0, [pc, #64]	; e544 <uart_init+0xa8>
    e500:	ebffe6c7 	bl	8024 <PUT32>
    e504:	e3a01000 	mov	r1, #0, 0
    e508:	e59f0038 	ldr	r0, [pc, #56]	; e548 <uart_init+0xac>
    e50c:	ebffe6c4 	bl	8024 <PUT32>
    e510:	e3a01006 	mov	r1, #6, 0
    e514:	e59f0030 	ldr	r0, [pc, #48]	; e54c <uart_init+0xb0>
    e518:	ebffe6c1 	bl	8024 <PUT32>
    e51c:	e59f102c 	ldr	r1, [pc, #44]	; e550 <uart_init+0xb4>
    e520:	e59f002c 	ldr	r0, [pc, #44]	; e554 <uart_init+0xb8>
    e524:	ebffe6be 	bl	8024 <PUT32>
    e528:	e3a01003 	mov	r1, #3, 0
    e52c:	e1a00004 	mov	r0, r4
    e530:	ebffe6bb 	bl	8024 <PUT32>
    e534:	eb00007b 	bl	e728 <dev_barrier>
    e538:	e8bd8010 	pop	{r4, pc}
    e53c:	20215004 	.word	0x20215004
    e540:	20215044 	.word	0x20215044
    e544:	2021504c 	.word	0x2021504c
    e548:	20215050 	.word	0x20215050
    e54c:	20215048 	.word	0x20215048
    e550:	0000010e 	.word	0x0000010e
    e554:	20215068 	.word	0x20215068

0000e558 <uart_can_put8>:
    e558:	e92d4010 	push	{r4, lr}
    e55c:	e59f0018 	ldr	r0, [pc, #24]	; e57c <uart_can_put8+0x24>
    e560:	ebffe6b1 	bl	802c <GET32>
    e564:	e3100002 	tst	r0, #2, 0
    e568:	1a000001 	bne	e574 <uart_can_put8+0x1c>
    e56c:	e3a00000 	mov	r0, #0, 0
    e570:	e8bd8010 	pop	{r4, pc}
    e574:	e3a00001 	mov	r0, #1, 0
    e578:	e8bd8010 	pop	{r4, pc}
    e57c:	20215064 	.word	0x20215064

0000e580 <uart_put8>:
    e580:	e92d4010 	push	{r4, lr}
    e584:	e1a04000 	mov	r4, r0
    e588:	eb000066 	bl	e728 <dev_barrier>
    e58c:	ebfffff1 	bl	e558 <uart_can_put8>
    e590:	e3500001 	cmp	r0, #1, 0
    e594:	1afffffc 	bne	e58c <uart_put8+0xc>
    e598:	e1a01004 	mov	r1, r4
    e59c:	e59f0008 	ldr	r0, [pc, #8]	; e5ac <uart_put8+0x2c>
    e5a0:	ebffe69f 	bl	8024 <PUT32>
    e5a4:	e3a00000 	mov	r0, #0, 0
    e5a8:	e8bd8010 	pop	{r4, pc}
    e5ac:	20215040 	.word	0x20215040

0000e5b0 <uart_has_data>:
    e5b0:	e92d4010 	push	{r4, lr}
    e5b4:	e59f0018 	ldr	r0, [pc, #24]	; e5d4 <uart_has_data+0x24>
    e5b8:	ebffe69b 	bl	802c <GET32>
    e5bc:	e3100001 	tst	r0, #1, 0
    e5c0:	1a000001 	bne	e5cc <uart_has_data+0x1c>
    e5c4:	e3a00000 	mov	r0, #0, 0
    e5c8:	e8bd8010 	pop	{r4, pc}
    e5cc:	e3a00001 	mov	r0, #1, 0
    e5d0:	e8bd8010 	pop	{r4, pc}
    e5d4:	20215064 	.word	0x20215064

0000e5d8 <uart_get8>:
    e5d8:	e92d4010 	push	{r4, lr}
    e5dc:	eb000051 	bl	e728 <dev_barrier>
    e5e0:	ebfffff2 	bl	e5b0 <uart_has_data>
    e5e4:	e3500001 	cmp	r0, #1, 0
    e5e8:	1afffffc 	bne	e5e0 <uart_get8+0x8>
    e5ec:	e59f0004 	ldr	r0, [pc, #4]	; e5f8 <uart_get8+0x20>
    e5f0:	ebffe68d 	bl	802c <GET32>
    e5f4:	e8bd8010 	pop	{r4, pc}
    e5f8:	20215040 	.word	0x20215040

0000e5fc <uart_get8_async>:
    e5fc:	e92d4010 	push	{r4, lr}
    e600:	ebffffea 	bl	e5b0 <uart_has_data>
    e604:	e3500000 	cmp	r0, #0, 0
    e608:	0a000001 	beq	e614 <uart_get8_async+0x18>
    e60c:	ebfffff1 	bl	e5d8 <uart_get8>
    e610:	e8bd8010 	pop	{r4, pc}
    e614:	e3e00000 	mvn	r0, #0, 0
    e618:	e8bd8010 	pop	{r4, pc}

0000e61c <uart_tx_is_empty>:
    e61c:	e92d4010 	push	{r4, lr}
    e620:	eb000040 	bl	e728 <dev_barrier>
    e624:	e59f0018 	ldr	r0, [pc, #24]	; e644 <uart_tx_is_empty+0x28>
    e628:	ebffe67f 	bl	802c <GET32>
    e62c:	e3100c02 	tst	r0, #512	; 0x200
    e630:	0a000001 	beq	e63c <uart_tx_is_empty+0x20>
    e634:	e3a00001 	mov	r0, #1, 0
    e638:	e8bd8010 	pop	{r4, pc}
    e63c:	e3a00000 	mov	r0, #0, 0
    e640:	e8bd8010 	pop	{r4, pc}
    e644:	20215064 	.word	0x20215064

0000e648 <uart_flush_tx>:
    e648:	e92d4010 	push	{r4, lr}
    e64c:	eb000035 	bl	e728 <dev_barrier>
    e650:	ebfffff1 	bl	e61c <uart_tx_is_empty>
    e654:	e3500000 	cmp	r0, #0, 0
    e658:	0afffffc 	beq	e650 <uart_flush_tx+0x8>
    e65c:	eb000031 	bl	e728 <dev_barrier>
    e660:	e8bd8010 	pop	{r4, pc}

0000e664 <uart_disable>:
    e664:	e92d4010 	push	{r4, lr}
    e668:	eb00002e 	bl	e728 <dev_barrier>
    e66c:	ebfffff5 	bl	e648 <uart_flush_tx>
    e670:	eb00002c 	bl	e728 <dev_barrier>
    e674:	e59f4018 	ldr	r4, [pc, #24]	; e694 <uart_disable+0x30>
    e678:	e1a00004 	mov	r0, r4
    e67c:	ebffe66a 	bl	802c <GET32>
    e680:	e3c01001 	bic	r1, r0, #1, 0
    e684:	e1a00004 	mov	r0, r4
    e688:	ebffe665 	bl	8024 <PUT32>
    e68c:	eb000025 	bl	e728 <dev_barrier>
    e690:	e8bd8010 	pop	{r4, pc}
    e694:	20215004 	.word	0x20215004

0000e698 <memcpy>:
    e698:	e3a03000 	mov	r3, #0, 0
    e69c:	e1530002 	cmp	r3, r2
    e6a0:	212fff1e 	bxcs	lr
    e6a4:	e7d1c003 	ldrb	ip, [r1, r3]
    e6a8:	e7c0c003 	strb	ip, [r0, r3]
    e6ac:	e2833001 	add	r3, r3, #1, 0
    e6b0:	eafffff9 	b	e69c <memcpy+0x4>

0000e6b4 <memcpy_end>:
    e6b4:	e12fff1e 	bx	lr

0000e6b8 <default_putchar>:
    e6b8:	e92d4010 	push	{r4, lr}
    e6bc:	e1a04000 	mov	r4, r0
    e6c0:	e6ef0070 	uxtb	r0, r0
    e6c4:	ebffffad 	bl	e580 <uart_put8>
    e6c8:	e1a00004 	mov	r0, r4
    e6cc:	e8bd8010 	pop	{r4, pc}

0000e6d0 <rpi_putchar_set>:
    e6d0:	e59f300c 	ldr	r3, [pc, #12]	; e6e4 <rpi_putchar_set+0x14>
    e6d4:	e5932000 	ldr	r2, [r3]
    e6d8:	e5830000 	str	r0, [r3]
    e6dc:	e1a00002 	mov	r0, r2
    e6e0:	e12fff1e 	bx	lr
    e6e4:	0000f200 	.word	0x0000f200

0000e6e8 <_cstart>:
    e6e8:	e92d4010 	push	{r4, lr}
    e6ec:	eb00000c 	bl	e724 <custom_loader>
    e6f0:	e59f3024 	ldr	r3, [pc, #36]	; e71c <_cstart+0x34>
    e6f4:	e59f2024 	ldr	r2, [pc, #36]	; e720 <_cstart+0x38>
    e6f8:	e1530002 	cmp	r3, r2
    e6fc:	33a02000 	movcc	r2, #0, 0
    e700:	34832004 	strcc	r2, [r3], #4
    e704:	3afffffa 	bcc	e6f4 <_cstart+0xc>
    e708:	ebffff63 	bl	e49c <uart_init>
    e70c:	e3a03001 	mov	r3, #1, 0
    e710:	ee0f3f1c 	mcr	15, 0, r3, cr15, cr12, {0}
    e714:	ebffe9fb 	bl	8f08 <notmain>
    e718:	eb000092 	bl	e968 <clean_reboot>
    e71c:	0000f210 	.word	0x0000f210
    e720:	000132c0 	.word	0x000132c0

0000e724 <custom_loader>:
    e724:	e12fff1e 	bx	lr

0000e728 <dev_barrier>:
    e728:	ea000002 	b	e738 <dsb>

0000e72c <dmb>:
    e72c:	e3a00000 	mov	r0, #0, 0
    e730:	ee070fba 	mcr	15, 0, r0, cr7, cr10, {5}
    e734:	e12fff1e 	bx	lr

0000e738 <dsb>:
    e738:	ee070f9a 	mcr	15, 0, r0, cr7, cr10, {4}
    e73c:	e12fff1e 	bx	lr

0000e740 <at_user_level>:
    e740:	e10f0000 	mrs	r0, CPSR
    e744:	e200001f 	and	r0, r0, #31, 0
    e748:	e3500010 	cmp	r0, #16, 0
    e74c:	13a00000 	movne	r0, #0, 0
    e750:	03a00001 	moveq	r0, #1, 0
    e754:	e12fff1e 	bx	lr

0000e758 <set_user_level>:
    e758:	e10f3000 	mrs	r3, CPSR
    e75c:	e3c3301f 	bic	r3, r3, #31, 0
    e760:	e3833010 	orr	r3, r3, #16, 0
    e764:	e129f003 	msr	CPSR_fc, r3
    e768:	e12fff1e 	bx	lr

0000e76c <rpi_reboot>:
    e76c:	e92d4010 	push	{r4, lr}
    e770:	ebfffff2 	bl	e740 <at_user_level>
    e774:	e3500000 	cmp	r0, #0, 0
    e778:	1a00000a 	bne	e7a8 <rpi_reboot+0x3c>
    e77c:	eb000081 	bl	e988 <reboot_callout>
    e780:	ebffffb0 	bl	e648 <uart_flush_tx>
    e784:	e3a0000a 	mov	r0, #10, 0
    e788:	eb000021 	bl	e814 <delay_ms>
    e78c:	e59f101c 	ldr	r1, [pc, #28]	; e7b0 <rpi_reboot+0x44>
    e790:	e59f001c 	ldr	r0, [pc, #28]	; e7b4 <rpi_reboot+0x48>
    e794:	ebffe622 	bl	8024 <PUT32>
    e798:	e59f1018 	ldr	r1, [pc, #24]	; e7b8 <rpi_reboot+0x4c>
    e79c:	e59f0018 	ldr	r0, [pc, #24]	; e7bc <rpi_reboot+0x50>
    e7a0:	ebffe61f 	bl	8024 <PUT32>
    e7a4:	eafffffe 	b	e7a4 <rpi_reboot+0x38>
    e7a8:	ebffffea 	bl	e758 <set_user_level>
    e7ac:	eafffff2 	b	e77c <rpi_reboot+0x10>
    e7b0:	5a000001 	.word	0x5a000001
    e7b4:	20100024 	.word	0x20100024
    e7b8:	5a000020 	.word	0x5a000020
    e7bc:	2010001c 	.word	0x2010001c

0000e7c0 <timer_get_usec_raw>:
    e7c0:	e92d4010 	push	{r4, lr}
    e7c4:	e59f0004 	ldr	r0, [pc, #4]	; e7d0 <timer_get_usec_raw+0x10>
    e7c8:	ebffe617 	bl	802c <GET32>
    e7cc:	e8bd8010 	pop	{r4, pc}
    e7d0:	20003004 	.word	0x20003004

0000e7d4 <timer_get_usec>:
    e7d4:	e92d4010 	push	{r4, lr}
    e7d8:	ebffffd2 	bl	e728 <dev_barrier>
    e7dc:	ebfffff7 	bl	e7c0 <timer_get_usec_raw>
    e7e0:	e1a04000 	mov	r4, r0
    e7e4:	ebffffcf 	bl	e728 <dev_barrier>
    e7e8:	e1a00004 	mov	r0, r4
    e7ec:	e8bd8010 	pop	{r4, pc}

0000e7f0 <delay_us>:
    e7f0:	e92d4070 	push	{r4, r5, r6, lr}
    e7f4:	e1a05000 	mov	r5, r0
    e7f8:	ebfffff5 	bl	e7d4 <timer_get_usec>
    e7fc:	e1a04000 	mov	r4, r0
    e800:	ebfffff3 	bl	e7d4 <timer_get_usec>
    e804:	e0400004 	sub	r0, r0, r4
    e808:	e1500005 	cmp	r0, r5
    e80c:	3afffffb 	bcc	e800 <delay_us+0x10>
    e810:	e8bd8070 	pop	{r4, r5, r6, pc}

0000e814 <delay_ms>:
    e814:	e92d4010 	push	{r4, lr}
    e818:	e0603280 	rsb	r3, r0, r0, lsl #5
    e81c:	e0800103 	add	r0, r0, r3, lsl #2
    e820:	e1a00180 	lsl	r0, r0, #3
    e824:	ebfffff1 	bl	e7f0 <delay_us>
    e828:	e8bd8010 	pop	{r4, pc}

0000e82c <delay_sec>:
    e82c:	e92d4010 	push	{r4, lr}
    e830:	e0603280 	rsb	r3, r0, r0, lsl #5
    e834:	e0800103 	add	r0, r0, r3, lsl #2
    e838:	e1a00180 	lsl	r0, r0, #3
    e83c:	ebfffff4 	bl	e814 <delay_ms>
    e840:	e8bd8010 	pop	{r4, pc}

0000e844 <gpio_set_function>:
    e844:	e350001f 	cmp	r0, #31, 0
    e848:	812fff1e 	bxhi	lr
    e84c:	e92d4070 	push	{r4, r5, r6, lr}
    e850:	e1a05001 	mov	r5, r1
    e854:	e3510007 	cmp	r1, #7, 0
    e858:	88bd8070 	pophi	{r4, r5, r6, pc}
    e85c:	e59f403c 	ldr	r4, [pc, #60]	; e8a0 <gpio_set_function+0x5c>
    e860:	e0843094 	umull	r3, r4, r4, r0
    e864:	e1a041a4 	lsr	r4, r4, #3
    e868:	e2846302 	add	r6, r4, #134217728	; 0x8000000
    e86c:	e2866702 	add	r6, r6, #524288	; 0x80000
    e870:	e1a06106 	lsl	r6, r6, #2
    e874:	e0844104 	add	r4, r4, r4, lsl #2
    e878:	e0404084 	sub	r4, r0, r4, lsl #1
    e87c:	e0844084 	add	r4, r4, r4, lsl #1
    e880:	e1a00006 	mov	r0, r6
    e884:	ebffe5e8 	bl	802c <GET32>
    e888:	e3a01007 	mov	r1, #7, 0
    e88c:	e1c01411 	bic	r1, r0, r1, lsl r4
    e890:	e1811415 	orr	r1, r1, r5, lsl r4
    e894:	e1a00006 	mov	r0, r6
    e898:	ebffe5e1 	bl	8024 <PUT32>
    e89c:	e8bd8070 	pop	{r4, r5, r6, pc}
    e8a0:	cccccccd 	.word	0xcccccccd

0000e8a4 <gpio_set_output>:
    e8a4:	e350001f 	cmp	r0, #31, 0
    e8a8:	812fff1e 	bxhi	lr
    e8ac:	e92d4010 	push	{r4, lr}
    e8b0:	e3a01001 	mov	r1, #1, 0
    e8b4:	ebffffe2 	bl	e844 <gpio_set_function>
    e8b8:	e8bd8010 	pop	{r4, pc}

0000e8bc <gpio_set_on>:
    e8bc:	e350001f 	cmp	r0, #31, 0
    e8c0:	812fff1e 	bxhi	lr
    e8c4:	e92d4010 	push	{r4, lr}
    e8c8:	e3a01001 	mov	r1, #1, 0
    e8cc:	e1a01011 	lsl	r1, r1, r0
    e8d0:	e59f0004 	ldr	r0, [pc, #4]	; e8dc <gpio_set_on+0x20>
    e8d4:	ebffe5d2 	bl	8024 <PUT32>
    e8d8:	e8bd8010 	pop	{r4, pc}
    e8dc:	2020001c 	.word	0x2020001c

0000e8e0 <gpio_set_off>:
    e8e0:	e350001f 	cmp	r0, #31, 0
    e8e4:	812fff1e 	bxhi	lr
    e8e8:	e92d4010 	push	{r4, lr}
    e8ec:	e3a01001 	mov	r1, #1, 0
    e8f0:	e1a01011 	lsl	r1, r1, r0
    e8f4:	e59f0004 	ldr	r0, [pc, #4]	; e900 <gpio_set_off+0x20>
    e8f8:	ebffe5c9 	bl	8024 <PUT32>
    e8fc:	e8bd8010 	pop	{r4, pc}
    e900:	20200028 	.word	0x20200028

0000e904 <gpio_write>:
    e904:	e92d4010 	push	{r4, lr}
    e908:	e3510000 	cmp	r1, #0, 0
    e90c:	0a000001 	beq	e918 <gpio_write+0x14>
    e910:	ebffffe9 	bl	e8bc <gpio_set_on>
    e914:	e8bd8010 	pop	{r4, pc}
    e918:	ebfffff0 	bl	e8e0 <gpio_set_off>
    e91c:	e8bd8010 	pop	{r4, pc}

0000e920 <gpio_set_input>:
    e920:	e350001f 	cmp	r0, #31, 0
    e924:	812fff1e 	bxhi	lr
    e928:	e92d4010 	push	{r4, lr}
    e92c:	e3a01000 	mov	r1, #0, 0
    e930:	ebffffc3 	bl	e844 <gpio_set_function>
    e934:	e8bd8010 	pop	{r4, pc}

0000e938 <gpio_read>:
    e938:	e92d4010 	push	{r4, lr}
    e93c:	e1a04000 	mov	r4, r0
    e940:	e59f001c 	ldr	r0, [pc, #28]	; e964 <gpio_read+0x2c>
    e944:	ebffe5b8 	bl	802c <GET32>
    e948:	e3a03001 	mov	r3, #1, 0
    e94c:	e0003413 	and	r3, r0, r3, lsl r4
    e950:	e1a00433 	lsr	r0, r3, r4
    e954:	e3500001 	cmp	r0, #1, 0
    e958:	08bd8010 	popeq	{r4, pc}
    e95c:	e3a00000 	mov	r0, #0, 0
    e960:	e8bd8010 	pop	{r4, pc}
    e964:	20200034 	.word	0x20200034

0000e968 <clean_reboot>:
    e968:	e92d4010 	push	{r4, lr}
    e96c:	e59f0010 	ldr	r0, [pc, #16]	; e984 <clean_reboot+0x1c>
    e970:	eb000005 	bl	e98c <putk>
    e974:	ebffff33 	bl	e648 <uart_flush_tx>
    e978:	e3a0000a 	mov	r0, #10, 0
    e97c:	ebffffa4 	bl	e814 <delay_ms>
    e980:	ebffff79 	bl	e76c <rpi_reboot>
    e984:	0000eaac 	.word	0x0000eaac

0000e988 <reboot_callout>:
    e988:	e12fff1e 	bx	lr

0000e98c <putk>:
    e98c:	e92d4010 	push	{r4, lr}
    e990:	e1a04000 	mov	r4, r0
    e994:	e5d40000 	ldrb	r0, [r4]
    e998:	e3500000 	cmp	r0, #0, 0
    e99c:	0a000004 	beq	e9b4 <putk+0x28>
    e9a0:	e59f3014 	ldr	r3, [pc, #20]	; e9bc <putk+0x30>
    e9a4:	e5933000 	ldr	r3, [r3]
    e9a8:	e12fff33 	blx	r3
    e9ac:	e2844001 	add	r4, r4, #1, 0
    e9b0:	eafffff7 	b	e994 <putk+0x8>
    e9b4:	e3a00001 	mov	r0, #1, 0
    e9b8:	e8bd8010 	pop	{r4, pc}
    e9bc:	0000f200 	.word	0x0000f200
